(dp0
L3469312L
(F1.0
L3469320L
tp1
sL3469824L
(F1.0
L3469832L
tp2
sL3469672L
(F1.0
L3469680L
tp3
sL3469320L
(F1.0
L3469328L
tp4
sL3469328L
(F1.0
L3469336L
tp5
sL3469912L
(F1.0
L3469920L
tp6
sL3469760L
(F1.0
L3469768L
tp7
sL3469368L
(F1.0
L3469376L
tp8
sL3469336L
(F1.0
L3469344L
tp9
sL3469344L
(F1.0
L3469352L
tp10
sL3469232L
(F1.0
L3469240L
tp11
sL3469864L
(F1.0
L3469872L
tp12
sL3469360L
(F1.0
L3469368L
tp13
sL3469576L
(F1.0
L3469584L
tp14
sL3469880L
(F1.0
L3469888L
tp15
sL3469376L
(F1.0
L3469384L
tp16
sL3469920L
(F1.0
L3469928L
tp17
sL3469216L
(F1.0
L3469224L
tp18
sL3469384L
(F1.0
L3469392L
tp19
sL3470120L
(F1.0
L3470128L
tp20
sL3469904L
(F1.0
L3469912L
tp21
sL3469496L
(F1.0
L3469504L
tp22
sL3469728L
(F1.0
L3469736L
tp23
sL3469400L
(F1.0
L3469408L
tp24
sL3469408L
(F1.0
L3469416L
tp25
sL3469840L
(F1.0
L3469848L
tp26
sL3469928L
(F1.0
L3469936L
tp27
sL3470104L
(F1.0
L3470112L
tp28
sL3469936L
(F1.0
L3469944L
tp29
sL3469416L
(F1.0
L3469424L
tp30
sL3469712L
(F1.0
L3469720L
tp31
sL3469944L
(F1.0
L3469952L
tp32
sL3469440L
(F1.0
L3469448L
tp33
sL3470016L
(F1.0
L3470024L
tp34
sL3469960L
(F1.0
L3469968L
tp35
sL3469456L
(F1.0
L3469464L
tp36
sL3469848L
(F1.0
L3469856L
tp37
sL3469696L
(F1.0
L3469704L
tp38
sL3469976L
(F1.0
L3469984L
tp39
sL3469656L
(F1.0
L3469664L
tp40
sL3469984L
(F1.0
L3469992L
tp41
sL3469424L
(F1.0
L3469432L
tp42
sL3469992L
(F1.0
L3470000L
tp43
sL3469488L
(F1.0
L3469496L
tp44
sL3469512L
(F1.0
L3469520L
tp45
sL3469680L
(F1.0
L3469688L
tp46
sL3469888L
(F1.0
L3469896L
tp47
sL3470008L
(F1.0
L3470016L
tp48
sL3469504L
(F1.0
L3469512L
tp49
sL3469856L
(F1.0
L3469864L
tp50
sL3469800L
(F1.0
L3469808L
tp51
sL3470024L
(F1.0
L3470032L
tp52
sL3469520L
(F1.0
L3469528L
tp53
sL3469432L
(F1.0
L3469440L
tp54
sL3469272L
(F1.0
L3469280L
tp55
sL3470040L
(F1.0
L3470048L
tp56
sL3469536L
(F1.0
L3469544L
tp57
sL3470176L
(F1.0
L3470184L
tp58
sL3469544L
(F1.0
L3469552L
tp59
sL3469552L
(F1.0
L3469560L
tp60
sL3469352L
(F1.0
L3469360L
tp61
sL3469560L
(F1.0
L3469568L
tp62
sL3469568L
(F1.0
L3469576L
tp63
sL3469952L
(F1.0
L3469960L
tp64
sL3469768L
(F1.0
L3469776L
tp65
sL3470088L
(F1.0
L3470096L
tp66
sL3469584L
(F1.0
L3469592L
tp67
sL3469528L
(F1.0
L3469536L
tp68
sL3469592L
(F1.0
L3469600L
tp69
sL3469600L
(F1.0
L3469608L
tp70
sL3469872L
(F1.0
L3469880L
tp71
sL3469752L
(F1.0
L3469760L
tp72
sL3469608L
(F1.0
L3469616L
tp73
sL3469616L
(F1.0
L3469624L
tp74
sL3469448L
(F1.0
L3469456L
tp75
sL3469624L
(F1.0
L3469632L
tp76
sL3469632L
(F1.0
L3469640L
tp77
sL3470048L
(F1.0
L3470056L
tp78
sL3469736L
(F1.0
L3469744L
tp79
sL3469640L
(F1.0
L3469648L
tp80
sL3469648L
(F1.0
L3469656L
tp81
sL3470136L
(F1.0
L3470144L
tp82
sL3470168L
(F1.0
L3470176L
tp83
sL3470112L
(F1.0
L3470120L
tp84
sL3469664L
(F1.0
L3469672L
tp85
sL3469968L
(F1.0
L3469976L
tp86
sL3469896L
(F1.0
L3469904L
tp87
sL3470184L
(F1.0
L3470192L
tp88
sL3470192L
(F1.0
L3470200L
tp89
sL3470056L
(F1.0
L3470064L
tp90
sL3469688L
(F1.0
L3469696L
tp91
sL3470096L
(F1.0
L3470104L
tp92
sL3470208L
(F1.0
L3470216L
tp93
sL3470144L
(F1.0
L3470152L
tp94
sL3469704L
(F1.0
L3469712L
tp95
sL3470224L
(F1.0
L3470232L
tp96
sL3469720L
(F1.0
L3469728L
tp97
sL3470216L
(F1.0
L3470224L
tp98
sL3470232L
(F1.0
L3470240L
tp99
sL3470080L
(F1.0
L3470088L
tp100
sL3470240L
(F1.0
L3470248L
tp101
sL3470064L
(F1.0
L3470072L
tp102
sL3469224L
(F1.0
L3469232L
tp103
sL3469744L
(F1.0
L3469752L
tp104
sL3470152L
(F1.0
L3470160L
tp105
sL3470200L
(F1.0
L3470208L
tp106
sL3469808L
(F1.0
L3469816L
tp107
sL3469240L
(F1.0
L3469248L
tp108
sL3469248L
(F1.0
L3469256L
tp109
sL3469472L
(F1.0
L3469480L
tp110
sL3469392L
(F1.0
L3469400L
tp111
sL3469256L
(F1.0
L3469264L
tp112
sL3469776L
(F1.0
L3469784L
tp113
sL3469816L
(F1.0
L3469824L
tp114
sL3469792L
(F1.0
L3469800L
tp115
sL3469784L
(F1.0
L3469792L
tp116
sL3469280L
(F1.0
L3469288L
tp117
sL3470160L
(F1.0
L3470168L
tp118
sL3469264L
(F1.0
L3469272L
tp119
sL3469288L
(F1.0
L3469296L
tp120
sL3469296L
(F1.0
L3469304L
tp121
sL3469480L
(F1.0
L3469488L
tp122
sL3469304L
(F1.0
L3469312L
tp123
sL3470032L
(F1.0
L3470040L
tp124
s.