(dp0
L69632L
(F1.0
L69652L
tp1
sL16386L
(F4.0
L16411L
tp2
sL49155L
(F1.7777777777777777
L49173L
tp3
sL75094L
(F11.71754903347354
L75115L
tp4
sL50192L
(F1.0
L50199L
tp5
sL100656L
(F1.7519247219846021
L100674L
tp6
sL59848L
(F2.6666666666666665
L59856L
tp7
sL57360L
(F1.0
L57427L
tp8
sL90129L
(F1.3128205128205128
L90144L
tp9
sL57347L
(F1.5421686746987953
L57352L
tp10
sL2242000L
(F1.0
L2242008L
tp11
sL40981L
(F2.2857142857142856
L40991L
tp12
sL83472L
(F5.720670391061453
L83485L
tp13
sL33552L
(F1.0
L33593L
tp14
sL19641L
(F2.064516129032258
L19669L
tp15
sL16411L
(F8.0
L16463L
tp16
sL49180L
(F1.5802469135802468
L49223L
tp17
sL31098L
(F164.0
L31113L
tp18
sL40991L
(F0.7032967032967034
L41005L
tp19
sL32800L
(F1.0
L32814L
tp20
sL35504L
(F0.30048050471334775
L35560L
tp21
sL13659L
(F1.9749276759884282
L13664L
tp22
sL24613L
(F94.70520231213872
L24620L
tp23
sL65461L
(F7.757575757575758
L65480L
tp24
sL27313L
(F2.6296444908113314
L27348L
tp25
sL65576L
(F5.657458563535911
L65585L
tp26
sL24620L
(F47.35260115606936
L24671L
tp27
sL41005L
(F0.5099601593625498
L41015L
tp28
sL32814L
(F1.0
L32824L
tp29
sL83293L
(F1.5176342542204109
L83339L
tp30
sL65585L
(F11.314917127071823
L65599L
tp31
sL73779L
(F0.30311552473521713
L73788L
tp32
sL90165L
(F28.845070422535212
L90187L
tp33
sL32824L
(F1.0
L32834L
tp34
sL43536L
(F5.333333333333333
L43546L
tp35
sL73788L
(F0.6062310494704343
L73795L
tp36
sL65599L
(F22.629834254143645
L65623L
tp37
sL41024L
(F4.571428571428571
L41039L
tp38
sL50528L
(F3.282051282051282
L50544L
tp39
sL32834L
(F1.0
L32844L
tp40
sL73795L
(F0.22478940237546283
L73808L
tp41
sL32736L
(F16.0
L32748L
tp42
sL49223L
(F0.6464646464646465
L49246L
tp43
sL98376L
(F0.6058082072529051
L98389L
tp44
sL82096L
(F1.3333333333333333
L82096L
tp45
sL32844L
(F2.0
L32858L
tp46
sL21825L
(F4.0
L21848L
tp47
sL41039L
(F9.142857142857142
L41048L
tp48
sL73808L
(F0.44957880475092565
L73813L
tp49
sL57427L
(F1.0
L57449L
tp50
sL98389L
(F1.5368361756876525
L98395L
tp51
sL65623L
(F0.5847143140835606
L65635L
tp52
sL41048L
(F18.285714285714285
L41050L
tp53
sL38244L
(F2.0
L38246L
tp54
sL32858L
(F1.0
L32885L
tp55
sL98395L
(F3.073672351375305
L98402L
tp56
sL64704L
(F1.0
L64710L
tp57
sL49246L
(F1.292929292929293
L49264L
tp58
sL24671L
(F94.70520231213872
L24678L
tp59
sL41056L
(F2.0
L41083L
tp60
sL40976L
(F1.1428571428571428
L40981L
tp61
sL98402L
(F6.14734470275061
L98452L
tp62
sL65635L
(F1.1694286281671211
L65642L
tp63
sL73829L
(F2.244008919743707
L73853L
tp64
sL24678L
(F47.35260115606936
L24709L
tp65
sL57449L
(F2.0
L57464L
tp66
sL65642L
(F2.3388572563342422
L65682L
tp67
sL49264L
(F1.7777777777777777
L49284L
tp68
sL91496L
(F2.0
L91501L
tp69
sL55800L
(F0.5714285714285714
L55817L
tp70
sL32888L
(F2.0
L32904L
tp71
sL69652L
(F2.0
L69660L
tp72
sL41083L
(F4.0
L41088L
tp73
sL73853L
(F4.488017839487414
L73872L
tp74
sL49173L
(F0.7901234567901234
L49180L
tp75
sL41088L
(F1.0
L41110L
tp76
sL82049L
(F2.0
L82057L
tp77
sL49284L
(F3.5555555555555554
L49327L
tp78
sL24709L
(F47.35260115606936
L24721L
tp79
sL82057L
(F4.0
L82059L
tp80
sL82059L
(F1.3333333333333333
L82068L
tp81
sL91501L
(F2.6666666666666665
L91512L
tp82
sL16528L
(F2.0
L16530L
tp83
sL24721L
(F94.70520231213872
L24760L
tp84
sL65682L
(F1.1694286281671211
L65693L
tp85
sL98452L
(F12.29468940550122
L98459L
tp86
sL41110L
(F2.0
L41121L
tp87
sL16536L
(F4.0
L16549L
tp88
sL68292L
(F0.20700507421114633
L68297L
tp89
sL98459L
(F6.14734470275061
L98491L
tp90
sL65693L
(F2.3388572563342422
L65702L
tp91
sL57502L
(F4.0
L57513L
tp92
sL15045L
(F2.0
L15068L
tp93
sL32928L
(F2.0
L32947L
tp94
sL41121L
(F1.3333333333333333
L41126L
tp95
sL73893L
(F2.766957767700583
L73899L
tp96
sL41126L
(F2.6666666666666665
L41133L
tp97
sL47573L
(F9.142857142857142
L47592L
tp98
sL57513L
(F8.0
L57517L
tp99
sL73899L
(F5.533915535401166
L73918L
tp100
sL41133L
(F5.333333333333333
L41135L
tp101
sL49327L
(F7.111111111111111
L49354L
tp102
sL16560L
(F1.0
L16576L
tp103
sL78840L
(F4.0
L78870L
tp104
sL24760L
(F47.35260115606936
L24781L
tp105
sL82105L
(F2.0
L82110L
tp106
sL73918L
(F11.067831070802333
L73975L
tp107
sL98496L
(F0.9039947031560363
L98512L
tp108
sL62816L
(F5.080187010973571
L62832L
tp109
sL39627L
(F16.0
L39636L
tp110
sL41158L
(F1.3617021276595744
L41164L
tp111
sL64204L
(F1.293746051800379
L64218L
tp112
sL49354L
(F14.222222222222221
L49369L
tp113
sL57547L
(F8.0
L57597L
tp114
sL41164L
(F1.4545454545454546
L41171L
tp115
sL24781L
(F47.35260115606936
L24802L
tp116
sL17192L
(F2.0
L17209L
tp117
sL82128L
(F1.7777777777777777
L82130L
tp118
sL91512L
(F1.1428571428571428
L91518L
tp119
sL41171L
(F1.6842105263157894
L41176L
tp120
sL16596L
(F4.0
L16614L
tp121
sL82136L
(F4.0
L82145L
tp122
sL49369L
(F7.111111111111111
L49429L
tp123
sL98523L
(F0.9039947031560363
L98546L
tp124
sL32992L
(F1.0
L33020L
tp125
sL19152L
(F1.0
L19171L
tp126
sL24802L
(F94.70520231213872
L24807L
tp127
sL21883L
(F47.35260115606936
L21909L
tp128
sL16614L
(F8.0
L16634L
tp129
sL24807L
(F47.35260115606936
L24819L
tp130
sL90345L
(F2.0
L90354L
tp131
sL82160L
(F1.0
L82177L
tp132
sL90152L
(F14.422535211267606
L90165L
tp133
sL90354L
(F4.0
L90363L
tp134
sL24819L
(F94.70520231213872
L24858L
tp135
sL55071L
(F4.0
L55080L
tp136
sL73975L
(F3.599039124486065
L73983L
tp137
sL41209L
(F2.206896551724138
L41242L
tp138
sL16634L
(F16.0
L16692L
tp139
sL90363L
(F8.0
L90373L
tp140
sL33020L
(F2.0
L33050L
tp141
sL73983L
(F3.994667495892167
L73996L
tp142
sL57600L
(F4.0
L57623L
tp143
sL38272L
(F2.0
L38305L
tp144
sL15557L
(F9.142857142857142
L15562L
tp145
sL90373L
(F16.0
L90376L
tp146
sL90376L
(F1.6
L90387L
tp147
sL82185L
(F4.0
L82187L
tp148
sL82187L
(F1.3333333333333333
L82196L
tp149
sL73996L
(F7.989334991784334
L73998L
tp150
sL74000L
(F5.330961223293207
L74010L
tp151
sL65809L
(F1.6102859530698617
L65835L
tp152
sL90387L
(F2.909090909090909
L90391L
tp153
sL43927L
(F1.6
L43933L
tp154
sL57623L
(F2.6666666666666665
L57638L
tp155
sL49432L
(F4.0
L49457L
tp156
sL24858L
(F47.35260115606936
L24882L
tp157
sL90400L
(F1.1851851851851851
L90409L
tp158
sL77872L
(F4.0
L77900L
tp159
sL94984L
(F20.16558922910633
L95005L
tp160
sL98353L
(F2.4957108585608556
L98373L
tp161
sL98600L
(F1.738740668443359
L98630L
tp162
sL90409L
(F2.9767441860465116
L90422L
tp163
sL82219L
(F2.0
L82239L
tp164
sL57648L
(F8.0
L57663L
tp165
sL99720L
(F4.4209390178089585
L99738L
tp166
sL24882L
(F47.35260115606936
L24894L
tp167
sL16692L
(F1.0
L16697L
tp168
sL65845L
(F0.43212609172442695
L65859L
tp169
sL90422L
(F5.953488372093023
L90432L
tp170
sL49464L
(F4.0
L49510L
tp171
sL33085L
(F2.0
L33096L
tp172
sL24894L
(F94.70520231213872
L24933L
tp173
sL57663L
(F2.0
L57668L
tp174
sL41280L
(F1.0
L41300L
tp175
sL80608L
(F20.0
L80676L
tp176
sL53433L
(F2.0
L53441L
tp177
sL65859L
(F0.8642521834488539
L65892L
tp178
sL40928L
(F1.1428571428571428
L40934L
tp179
sL90438L
(F1.4883720930232558
L90451L
tp180
sL33096L
(F1.3333333333333333
L33098L
tp181
sL16714L
(F2.0
L16725L
tp182
sL46384L
(F9.142857142857142
L46397L
tp183
sL33104L
(F4.0
L33118L
tp184
sL90451L
(F1.9844961240310077
L90465L
tp185
sL41300L
(F1.6
L41302L
tp186
sL16725L
(F4.0
L16732L
tp187
sL41302L
(F1.391304347826087
L41306L
tp188
sL98648L
(F0.9082395063318158
L98661L
tp189
sL30008L
(F26.666666666666664
L30041L
tp190
sL16732L
(F8.0
L16753L
tp191
sL23269L
(F47.35260115606936
L23281L
tp192
sL41312L
(F2.0
L41329L
tp193
sL90465L
(F3.9689922480620154
L90491L
tp194
sL65892L
(F1.7285043668977078
L65901L
tp195
sL24933L
(F47.35260115606936
L24957L
tp196
sL49510L
(F8.0
L49512L
tp197
sL49512L
(F1.292929292929293
L49517L
tp198
sL65901L
(F3.4570087337954156
L65910L
tp199
sL62752L
(F6.884033613445379
L62759L
tp200
sL49520L
(F1.0
L49534L
tp201
sL16753L
(F16.0
L16815L
tp202
sL40384L
(F1.0
L40424L
tp203
sL23953L
(F47.35260115606936
L23963L
tp204
sL82294L
(F4.0
L82299L
tp205
sL87552L
(F1.0
L87580L
tp206
sL74104L
(F1.0680731029075814
L74113L
tp207
sL18016L
(F2.2857142857142856
L18043L
tp208
sL82299L
(F1.6
L82308L
tp209
sL24957L
(F47.35260115606936
L24969L
tp210
sL49534L
(F2.0
L49544L
tp211
sL65919L
(F4.609344978393888
L65937L
tp212
sL90496L
(F2.6666666666666665
L90499L
tp213
sL45120L
(F1.28
L45137L
tp214
sL90499L
(F1.3333333333333333
L90508L
tp215
sL33156L
(F2.0
L33170L
tp216
sL49544L
(F1.0
L49554L
tp217
sL24969L
(F94.70520231213872
L25008L
tp218
sL57740L
(F2.0
L57752L
tp219
sL41360L
(F4.0
L41367L
tp220
sL65937L
(F0.20469529926635352
L65943L
tp221
sL33170L
(F0.8
L33189L
tp222
sL60571L
(F12.19047619047619
L60576L
tp223
sL74134L
(F8.976035678974828
L74205L
tp224
sL41367L
(F8.0
L41372L
tp225
sL57752L
(F1.0
L57796L
tp226
sL41372L
(F16.0
L41382L
tp227
sL49567L
(F4.0
L49571L
tp228
sL35568L
(F1.6
L35586L
tp229
sL49571L
(F2.0
L49579L
tp230
sL33189L
(F1.6
L33208L
tp231
sL41382L
(F32.0
L41418L
tp232
sL64488L
(F6.023529411764706
L64504L
tp233
sL49579L
(F1.0
L49588L
tp234
sL20200L
(F18.0
L20210L
tp235
sL90543L
(F0.3281969101334602
L90563L
tp236
sL16816L
(F1.1428571428571428
L16826L
tp237
sL65969L
(F0.20700507421114633
L65987L
tp238
sL49588L
(F1.0
L49600L
tp239
sL33208L
(F0.5714285714285714
L33244L
tp240
sL38768L
(F1.0
L38789L
tp241
sL16826L
(F16.0
L16838L
tp242
sL98748L
(F18.832183908045977
L98775L
tp243
sL49600L
(F1.0
L49610L
tp244
sL46496L
(F15.753846153846155
L46502L
tp245
sL90563L
(F0.6563938202669204
L90576L
tp246
sL57796L
(F2.0
L57824L
tp247
sL45024L
(F1.0
L45040L
tp248
sL82375L
(F4.0
L82386L
tp249
sL25032L
(F47.35260115606936
L25044L
tp250
sL20556L
(F10.24
L20564L
tp251
sL49610L
(F2.0
L49618L
tp252
sL60151L
(F8.0
L60159L
tp253
sL2241688L
(F1.0
L2241696L
tp254
sL61664L
(F3.764705882352941
L61691L
tp255
sL16848L
(F1.0
L16848L
tp256
sL66001L
(F6.777249224405377
L66014L
tp257
sL49618L
(F4.0
L49645L
tp258
sL90579L
(F1.6
L90588L
tp259
sL25044L
(F94.70520231213872
L25083L
tp260
sL78304L
(F0.927536231884058
L78313L
tp261
sL16463L
(F2.0
L16526L
tp262
sL33244L
(F0.8421052631578947
L33277L
tp263
sL74205L
(F17.952071357949656
L74258L
tp264
sL66014L
(F13.554498448810754
L66024L
tp265
sL41440L
(F2.6666666666666665
L41456L
tp266
sL82000L
(F1.0
L82000L
tp267
sL77905L
(F8.0
L77914L
tp268
sL66024L
(F1.7428396670478419
L66032L
tp269
sL16875L
(F2.0
L16882L
tp270
sL61522L
(F8.224899598393574
L61527L
tp271
sL49648L
(F1.3333333333333333
L49650L
tp272
sL82417L
(F2.0
L82426L
tp273
sL16882L
(F4.0
L16888L
tp274
sL57845L
(F12.8
L57849L
tp275
sL16888L
(F1.0
L16905L
tp276
sL57849L
(F6.4
L57858L
tp277
sL25083L
(F47.35260115606936
L25107L
tp278
sL66047L
(F1.8625854400250104
L66056L
tp279
sL33280L
(F2.0
L33326L
tp280
sL19200L
(F8.0
L19208L
tp281
sL57858L
(F1.7297297297297298
L57911L
tp282
sL15088L
(F1.0
L15112L
tp283
sL49672L
(F2.0
L49681L
tp284
sL16905L
(F1.6
L16930L
tp285
sL43778L
(F2.0
L43783L
tp286
sL41486L
(F2.0
L41488L
tp287
sL90640L
(F2.0
L90644L
tp288
sL73816L
(F2.244008919743707
L73829L
tp289
sL66066L
(F1.0856464848724547
L66080L
tp290
sL25107L
(F47.35260115606936
L25119L
tp291
sL90644L
(F4.0
L90677L
tp292
sL49664L
(F1.0
L49672L
tp293
sL47209L
(F12.487804878048781
L47231L
tp294
sL49688L
(F2.0
L49700L
tp295
sL41497L
(F1.3333333333333333
L41503L
tp296
sL74268L
(F3.599039124486065
L74277L
tp297
sL25119L
(F94.70520231213872
L25158L
tp298
sL66080L
(F2.1712929697449095
L66085L
tp299
sL98849L
(F1.7160527265422285
L98869L
tp300
sL16930L
(F3.2
L16942L
tp301
sL87854L
(F6.4
L87861L
tp302
sL74277L
(F7.19807824897213
L74302L
tp303
sL41512L
(F0.7619047619047619
L41561L
tp304
sL39299L
(F256.0
L39320L
tp305
sL33326L
(F2.0
L33359L
tp306
sL49712L
(F1.0
L49721L
tp307
sL19208L
(F16.0
L19237L
tp308
sL82482L
(F2.0
L82490L
tp309
sL30064L
(F26.666666666666664
L30072L
tp310
sL66032L
(F0.9312927200125052
L66047L
tp311
sL98166L
(F3.333199072716964
L98174L
tp312
sL57911L
(F3.4594594594594597
L57934L
tp313
sL90680L
(F3.9689922480620154
L90691L
tp314
sL49721L
(F2.0
L49723L
tp315
sL16954L
(F3.2
L16966L
tp316
sL66109L
(F16.0
L66171L
tp317
sL50613L
(F4.0
L50628L
tp318
sL49728L
(F2.0
L49739L
tp319
sL12384L
(F1.0
L12384L
tp320
sL98883L
(F3.0507604027417394
L98894L
tp321
sL82500L
(F8.0
L82505L
tp322
sL25158L
(F47.35260115606936
L25182L
tp323
sL90696L
(F4.0
L90780L
tp324
sL82505L
(F1.1428571428571428
L82510L
tp325
sL49739L
(F4.0
L49748L
tp326
sL64380L
(F6.918918918918919
L64392L
tp327
sL57934L
(F0.8888888888888888
L57944L
tp328
sL16976L
(F1.0
L16997L
tp329
sL2241976L
(F1.0
L2241984L
tp330
sL74322L
(F7.111111111111111
L74327L
tp331
sL45155L
(F6.2439024390243905
L45163L
tp332
sL49748L
(F8.0
L49750L
tp333
sL71216L
(F0.8888888888888888
L71240L
tp334
sL57944L
(F0.8
L57956L
tp335
sL41561L
(F1.5238095238095237
L41566L
tp336
sL60032L
(F2.6666666666666665
L60043L
tp337
sL48848L
(F2.56
L48856L
tp338
sL25182L
(F47.35260115606936
L25194L
tp339
sL33375L
(F2.0
L33431L
tp340
sL41568L
(F0.8888888888888888
L41583L
tp341
sL56080L
(F1.0
L56121L
tp342
sL57956L
(F1.6
L57960L
tp343
sL78144L
(F2.0
L78161L
tp344
sL97041L
(F9.6954549098452
L97052L
tp345
sL57960L
(F3.2
L57976L
tp346
sL49769L
(F6.4
L49775L
tp347
sL25194L
(F94.70520231213872
L25233L
tp348
sL20583L
(F1.8220640569395017
L20596L
tp349
sL49775L
(F1.6
L49780L
tp350
sL17008L
(F1.0
L17015L
tp351
sL49780L
(F1.3061224489795917
L49792L
tp352
sL74357L
(F0.5181305881826994
L74369L
tp353
sL57976L
(F2.1333333333333333
L57995L
tp354
sL98938L
(F3.6609124832900872
L98943L
tp355
sL66171L
(F32.0
L66211L
tp356
sL37376L
(F32.0
L37407L
tp357
sL43797L
(F0.4
L43808L
tp358
sL17024L
(F1.0
L17032L
tp359
sL42432L
(F7.314285714285714
L42434L
tp360
sL28779L
(F1.3333333333333333
L28783L
tp361
sL83393L
(F3.5074123628579073
L83403L
tp362
sL49800L
(F6.4
L49805L
tp363
sL57995L
(F1.2549019607843137
L58005L
tp364
sL49805L
(F12.8
L49823L
tp365
sL17040L
(F1.0
L17048L
tp366
sL25233L
(F47.35260115606936
L25257L
tp367
sL58005L
(F2.5098039215686274
L58017L
tp368
sL33431L
(F2.0
L33436L
tp369
sL37168L
(F10.666666666666666
L37168L
tp370
sL90780L
(F8.0
L90800L
tp371
sL33440L
(F1.0
L33467L
tp372
sL12400L
(F1.0
L12400L
tp373
sL49827L
(F4.923076923076923
L49832L
tp374
sL98984L
(F1.577432243777981
L99075L
tp375
sL25257L
(F47.35260115606936
L25269L
tp376
sL58026L
(F5.019607843137255
L58063L
tp377
sL17072L
(F1.0
L17080L
tp378
sL66225L
(F3.4570087337954156
L66233L
tp379
sL25269L
(F94.70520231213872
L25308L
tp380
sL90808L
(F3.2
L90818L
tp381
sL66233L
(F0.643267666450555
L66247L
tp382
sL22664L
(F47.35260115606936
L22681L
tp383
sL33467L
(F2.0
L33481L
tp384
sL45173L
(F0.5788581119276427
L45185L
tp385
sL17088L
(F1.0
L17095L
tp386
sL43808L
(F0.8
L43819L
tp387
sL90818L
(F2.1333333333333333
L90827L
tp388
sL41667L
(F2.0
L41672L
tp389
sL82630L
(F0.8
L82635L
tp390
sL66247L
(F2.859441113178689
L66259L
tp391
sL82635L
(F1.6
L82652L
tp392
sL51034L
(F2.4150943396226414
L51043L
tp393
sL84770L
(F32.0
L84776L
tp394
sL58063L
(F10.03921568627451
L58072L
tp395
sL33488L
(F2.6666666666666665
L33500L
tp396
sL66259L
(F3.1299584866546124
L66274L
tp397
sL49878L
(F1.0
L49887L
tp398
sL58072L
(F2.007843137254902
L58077L
tp399
sL41689L
(F1.3333333333333333
L41695L
tp400
sL56614L
(F2.0
L56624L
tp401
sL25308L
(F47.35260115606936
L25332L
tp402
sL58077L
(F2.8683473389355743
L58094L
tp403
sL41695L
(F2.6666666666666665
L41711L
tp404
sL17120L
(F1.0
L17128L
tp405
sL90849L
(F2.9767441860465116
L90864L
tp406
sL66274L
(F6.259916973309225
L66288L
tp407
sL35623L
(F4.0
L35682L
tp408
sL33516L
(F2.6666666666666665
L33522L
tp409
sL58094L
(F5.7366946778711485
L58111L
tp410
sL41711L
(F5.333333333333333
L41721L
tp411
sL66288L
(F0.7092555154037213
L66298L
tp412
sL13664L
(F2.6666666666666665
L13674L
tp413
sL33522L
(F1.1428571428571428
L33533L
tp414
sL25332L
(F47.35260115606936
L25344L
tp415
sL49909L
(F2.0
L49926L
tp416
sL60310L
(F2.0
L60360L
tp417
sL74487L
(F0.7522634957741564
L74496L
tp418
sL90872L
(F2.392523364485981
L90878L
tp419
sL66298L
(F0.5732198044412135
L66309L
tp420
sL90878L
(F1.5950155763239875
L90887L
tp421
sL58111L
(F3.824463118580766
L58114L
tp422
sL74496L
(F1.5045269915483128
L74559L
tp423
sL57472L
(F2.0
L57502L
tp424
sL58114L
(F2.2946778711484592
L58138L
tp425
sL66309L
(F1.146439608882427
L66318L
tp426
sL49926L
(F1.0
L49942L
tp427
sL90887L
(F3.190031152647975
L90889L
tp428
sL99080L
(F0.7225738164016847
L99127L
tp429
sL90889L
(F1.9140186915887851
L90899L
tp430
sL64948L
(F8.0
L64952L
tp431
sL102592L
(F0.4876190476190476
L102606L
tp432
sL66318L
(F2.292879217764854
L66410L
tp433
sL41744L
(F1.0
L41768L
tp434
sL2242008L
(F1.0
L2242016L
tp435
sL90899L
(F3.8280373831775703
L90908L
tp436
sL49942L
(F2.0
L49965L
tp437
sL82711L
(F2.4615384615384617
L82719L
tp438
sL46672L
(F2.0
L46688L
tp439
sL58138L
(F0.7225260186981831
L58140L
tp440
sL58140L
(F0.5519471769303328
L58160L
tp441
sL82719L
(F0.6336633663366337
L82745L
tp442
sL52016L
(F1.0
L52053L
tp443
sL17186L
(F2.0
L17188L
tp444
sL90915L
(F4.6413597733711045
L90934L
tp445
sL25383L
(F47.35260115606936
L25407L
tp446
sL41768L
(F2.0
L41773L
tp447
sL20615L
(F1.7917760279965005
L20650L
tp448
sL41773L
(F2.0
L41806L
tp449
sL58160L
(F1.1038943538606656
L58175L
tp450
sL61576L
(F2.6788750817527798
L61588L
tp451
sL90934L
(F1.6925619834710743
L90939L
tp452
sL99127L
(F1.4451476328033694
L99134L
tp453
sL17209L
(F1.0
L17229L
tp454
sL51856L
(F1.0
L51923L
tp455
sL90939L
(F3.3851239669421487
L90949L
tp456
sL90864L
(F1.1962616822429906
L90872L
tp457
sL99134L
(F0.7225738164016847
L99191L
tp458
sL74559L
(F0.153865743583192
L74564L
tp459
sL33600L
(F1.0
L33665L
tp460
sL99808L
(F0.5333916046963211
L99844L
tp461
sL74564L
(F2.728476868580896
L74574L
tp462
sL90952L
(F6.4
L90974L
tp463
sL25419L
(F94.70520231213872
L25458L
tp464
sL17229L
(F1.0
L17332L
tp465
sL41806L
(F2.0
L41815L
tp466
sL56494L
(F5.333333333333333
L56498L
tp467
sL58192L
(F4.0
L58204L
tp468
sL50004L
(F4.0
L50009L
tp469
sL41815L
(F0.8888888888888888
L41825L
tp470
sL74584L
(F11.71754903347354
L74594L
tp471
sL30580L
(F1.6842105263157894
L30585L
tp472
sL22319L
(F1.9189505739048958
L22370L
tp473
sL90974L
(F12.8
L90987L
tp474
sL50016L
(F2.6666666666666665
L50025L
tp475
sL32912L
(F2.0
L32928L
tp476
sL74594L
(F0.5281226272234939
L74607L
tp477
sL41832L
(F4.0
L41841L
tp478
sL50025L
(F5.333333333333333
L50031L
tp479
sL66410L
(F4.585758435529708
L66424L
tp480
sL90987L
(F3.330081300813008
L91009L
tp481
sL40128L
(F256.0
L40157L
tp482
sL88742L
(F17.855795316067027
L88866L
tp483
sL50031L
(F1.3333333333333333
L50036L
tp484
sL41841L
(F1.6
L41845L
tp485
sL25458L
(F47.35260115606936
L25482L
tp486
sL50036L
(F1.1428571428571428
L50050L
tp487
sL45584L
(F4.0
L45610L
tp488
sL99191L
(F0.8389467081429138
L99209L
tp489
sL41848L
(F4.0
L41876L
tp490
sL85305L
(F130.8770902708369
L85314L
tp491
sL82816L
(F1.0
L82890L
tp492
sL27456L
(F1.0
L27468L
tp493
sL50050L
(F0.8311688311688312
L50052L
tp494
sL39456L
(F12.8
L39468L
tp495
sL50056L
(F1.5238095238095237
L50066L
tp496
sL91017L
(F13.320325203252033
L91022L
tp497
sL25482L
(F47.35260115606936
L25494L
tp498
sL69783L
(F2.4615384615384617
L69795L
tp499
sL58252L
(F25.6
L58262L
tp500
sL91022L
(F5.565217391304348
L91040L
tp501
sL66447L
(F4.585758435529708
L66460L
tp502
sL33680L
(F1.0
L33719L
tp503
sL73880L
(F5.533915535401166
L73893L
tp504
sL50066L
(F3.0476190476190474
L50076L
tp505
sL18064L
(F2.2857142857142856
L18093L
tp506
sL67054L
(F18.410010894977784
L67078L
tp507
sL25494L
(F94.70520231213872
L25533L
tp508
sL28825L
(F2.0
L28831L
tp509
sL50076L
(F2.0317460317460316
L50122L
tp510
sL74653L
(F0.9578489608136541
L74656L
tp511
sL41888L
(F1.0
L41899L
tp512
sL83440L
(F4.384265453572384
L83448L
tp513
sL77979L
(F10.666666666666666
L78006L
tp514
sL45040L
(F0.2222222222222222
L45051L
tp515
sL30193L
(F2.0
L30202L
tp516
sL64145L
(F3.0081703846506933
L64148L
tp517
sL41899L
(F2.0
L41909L
tp518
sL74668L
(F0.7861616879195026
L74681L
tp519
sL91055L
(F2.8165721162111055
L91065L
tp520
sL58288L
(F5.7366946778711485
L58313L
tp521
sL41909L
(F4.0
L41921L
tp522
sL33719L
(F2.0
L33735L
tp523
sL91065L
(F5.633144232422211
L91075L
tp524
sL15853L
(F3.4653130287648053
L15880L
tp525
sL25533L
(F47.35260115606936
L25557L
tp526
sL17344L
(F1.0
L17349L
tp527
sL41921L
(F2.6666666666666665
L41937L
tp528
sL91075L
(F11.266288464844422
L91085L
tp529
sL78802L
(F1.0178926441351888
L78824L
tp530
sL69936L
(F4.0
L69948L
tp531
sL33735L
(F4.0
L33743L
tp532
sL58313L
(F11.473389355742297
L58330L
tp533
sL82890L
(F2.0
L82894L
tp534
sL44223L
(F0.44721039414783276
L44243L
tp535
sL82894L
(F4.0
L82899L
tp536
sL33743L
(F2.6666666666666665
L33763L
tp537
sL17360L
(F1.0
L17365L
tp538
sL41937L
(F2.6666666666666665
L41963L
tp539
sL91090L
(F5.633144232422211
L91098L
tp540
sL44496L
(F14.222222222222221
L44541L
tp541
sL25557L
(F47.35260115606936
L25569L
tp542
sL82904L
(F4.0
L82908L
tp543
sL66521L
(F3.7251708800500207
L66526L
tp544
sL58330L
(F5.019607843137255
L58339L
tp545
sL82908L
(F2.0
L82920L
tp546
sL91103L
(F3.755429488281474
L91111L
tp547
sL66528L
(F9.142857142857142
L66541L
tp548
sL25569L
(F94.70520231213872
L25608L
tp549
sL17491L
(F0.8
L17547L
tp550
sL33763L
(F5.333333333333333
L33856L
tp551
sL99300L
(F0.5136135691914931
L99311L
tp552
sL65702L
(F0.4025714882674654
L65734L
tp553
sL91111L
(F1.4082860581055527
L91132L
tp554
sL82920L
(F2.6666666666666665
L82926L
tp555
sL55408L
(F1.0
L55446L
tp556
sL41963L
(F1.0666666666666667
L41965L
tp557
sL82926L
(F0.8888888888888888
L82948L
tp558
sL99311L
(F0.2946394952967874
L99323L
tp559
sL41968L
(F4.0
L41987L
tp560
sL50163L
(F2.909090909090909
L50184L
tp561
sL14491L
(F4.0
L14520L
tp562
sL74742L
(F0.5643331406990593
L74747L
tp563
sL74747L
(F1.1286662813981185
L74752L
tp564
sL66556L
(F0.9961969008860083
L66578L
tp565
sL74752L
(F2.257332562796237
L74758L
tp566
sL46592L
(F1.0
L46592L
tp567
sL41987L
(F8.0
L41989L
tp568
sL82948L
(F1.7777777777777777
L82960L
tp569
sL58373L
(F1.1038943538606656
L58378L
tp570
sL74758L
(F0.563870552449505
L74770L
tp571
sL91143L
(F5.633144232422211
L91148L
tp572
sL25608L
(F47.35260115606936
L25632L
tp573
sL91148L
(F2.253257692968884
L91158L
tp574
sL57517L
(F4.0
L57547L
tp575
sL17424L
(F1.3333333333333333
L17431L
tp576
sL66578L
(F1.9923938017720166
L66586L
tp577
sL99348L
(F2.2625927843949594
L99361L
tp578
sL91158L
(F4.506515385937768
L91171L
tp579
sL17431L
(F0.6666666666666666
L17460L
tp580
sL66586L
(F1.9923938017720166
L66604L
tp581
sL82688L
(F1.2307692307692308
L82711L
tp582
sL50208L
(F2.0
L50227L
tp583
sL41136L
(F2.909090909090909
L41158L
tp584
sL82978L
(F1.8823529411764706
L82995L
tp585
sL58403L
(F2.0
L58412L
tp586
sL74792L
(F1.1286662813981185
L74809L
tp587
sL16008L
(F12.962025316455696
L16016L
tp588
sL25644L
(F94.70520231213872
L25683L
tp589
sL40680L
(F6.4
L40694L
tp590
sL91184L
(F5.633144232422211
L91194L
tp591
sL74778L
(F0.563870552449505
L74787L
tp592
sL82995L
(F1.2549019607843137
L83011L
tp593
sL17460L
(F1.3333333333333333
L17480L
tp594
sL58424L
(F1.3333333333333333
L58434L
tp595
sL74809L
(F2.257332562796237
L74815L
tp596
sL91194L
(F11.266288464844422
L91199L
tp597
sL74815L
(F4.514665125592474
L74820L
tp598
sL33856L
(F10.666666666666666
L33867L
tp599
sL52064L
(F1.0
L52076L
tp600
sL58434L
(F2.6666666666666665
L58456L
tp601
sL83011L
(F2.5098039215686274
L83070L
tp602
sL74820L
(F0.5902291460225977
L74832L
tp603
sL91207L
(F5.333333333333333
L91217L
tp604
sL42059L
(F2.0
L42071L
tp605
sL66636L
(F1.3657762658678878
L66677L
tp606
sL91661L
(F1.0
L91682L
tp607
sL17488L
(F1.6
L17491L
tp608
sL91217L
(F0.6563938202669204
L91222L
tp609
sL50259L
(F0.8421052631578947
L50261L
tp610
sL98784L
(F0.8580263632711143
L98849L
tp611
sL42071L
(F4.0
L42090L
tp612
sL50264L
(F4.0
L50270L
tp613
sL19300L
(F1.3333333333333333
L19309L
tp614
sL50270L
(F8.0
L50276L
tp615
sL77968L
(F16.0
L77979L
tp616
sL33888L
(F42.666666666666664
L33901L
tp617
sL74849L
(F0.6261236506254125
L74921L
tp618
sL50276L
(F16.0
L50283L
tp619
sL99431L
(F1.6708590477192076
L99448L
tp620
sL58472L
(F0.8888888888888888
L58487L
tp621
sL42090L
(F4.0
L42116L
tp622
sL25707L
(F47.35260115606936
L25719L
tp623
sL73416L
(F1.1220044598718535
L73442L
tp624
sL33901L
(F1.9541984732824427
L33906L
tp625
sL91246L
(F2.0
L91259L
tp626
sL24534L
(F47.35260115606936
L24557L
tp627
sL93032L
(F21.333333333333332
L93053L
tp628
sL13564L
(F0.9874638379942141
L13574L
tp629
sL66677L
(F6.914017467590831
L66691L
tp630
sL25719L
(F94.70520231213872
L25758L
tp631
sL33912L
(F2.6256410256410256
L33925L
tp632
sL91259L
(F4.0
L91278L
tp633
sL83070L
(F0.7150837988826816
L83085L
tp634
sL50304L
(F1.0
L50316L
tp635
sL94400L
(F8.0
L94409L
tp636
sL66691L
(F6.914017467590831
L66708L
tp637
sL42116L
(F1.1428571428571428
L42118L
tp638
sL33925L
(F1.3128205128205128
L33933L
tp639
sL87056L
(F2.6666666666666665
L87061L
tp640
sL17547L
(F1.6
L17567L
tp641
sL50316L
(F2.0
L50326L
tp642
sL33933L
(F2.6256410256410256
L33935L
tp643
sL91278L
(F2.0
L91287L
tp644
sL19309L
(F2.6666666666666665
L19323L
tp645
sL42128L
(F8.0
L42151L
tp646
sL58515L
(F2.0
L58524L
tp647
sL66708L
(F1.1694286281671211
L66727L
tp648
sL50326L
(F4.0
L50334L
tp649
sL28868L
(F2.0
L28890L
tp650
sL25758L
(F47.35260115606936
L25782L
tp651
sL58528L
(F0.8
L58536L
tp652
sL31600L
(F82.0
L31634L
tp653
sL83106L
(F0.5970845481049563
L83114L
tp654
sL65734L
(F0.8051429765349308
L65809L
tp655
sL17575L
(F0.8888888888888888
L17627L
tp656
sL58536L
(F1.3333333333333333
L58546L
tp657
sL74921L
(F1.252247301250825
L74926L
tp658
sL83114L
(F1.1941690962099125
L83131L
tp659
sL30832L
(F82.0
L30849L
tp660
sL33965L
(F1.2175980975029725
L33973L
tp661
sL74926L
(F2.50449460250165
L74932L
tp662
sL42160L
(F8.0
L42181L
tp663
sL58546L
(F2.6666666666666665
L58568L
tp664
sL74932L
(F1.00179784100066
L74939L
tp665
sL33973L
(F2.435196195005945
L33978L
tp666
sL25782L
(F47.35260115606936
L25794L
tp667
sL33978L
(F1.6234641300039636
L33998L
tp668
sL30239L
(F1.7777777777777777
L30282L
tp669
sL50365L
(F7.111111111111111
L50371L
tp670
sL14225L
(F1.3333333333333333
L14243L
tp671
sL75296L
(F2.0
L75303L
tp672
sL25794L
(F94.70520231213872
L25833L
tp673
sL82123L
(F2.6666666666666665
L82128L
tp674
sL74949L
(F0.5768533545392223
L74965L
tp675
sL50376L
(F1.641025641025641
L50399L
tp676
sL91337L
(F1.0
L91356L
tp677
sL47232L
(F2.0813008130081303
L47244L
tp678
sL83147L
(F0.8864841467373661
L83160L
tp679
sL61144L
(F27.44388609715243
L61149L
tp680
sL40816L
(F0.6513994910941476
L40845L
tp681
sL33998L
(F2.9142653859836356
L34008L
tp682
sL42192L
(F1.0
L42222L
tp683
sL66770L
(F2.292879217764854
L66823L
tp684
sL74965L
(F1.1537067090784445
L74978L
tp685
sL34008L
(F0.771447405593747
L34024L
tp686
sL17627L
(F1.7777777777777777
L17688L
tp687
sL50399L
(F3.282051282051282
L50401L
tp688
sL91360L
(F0.8
L91371L
tp689
sL98512L
(F1.8079894063120725
L98523L
tp690
sL74978L
(F0.6261236506254125
L74991L
tp691
sL99555L
(F6.711573665143311
L99569L
tp692
sL34024L
(F1.542894811187494
L34037L
tp693
sL25833L
(F47.35260115606936
L25857L
tp694
sL91371L
(F0.6153846153846154
L91374L
tp695
sL42222L
(F1.0
L42224L
tp696
sL74991L
(F1.252247301250825
L75000L
tp697
sL42224L
(F2.0
L42233L
tp698
sL99569L
(F13.423147330286621
L99588L
tp699
sL91378L
(F1.3333333333333333
L91388L
tp700
sL34040L
(F5.251282051282051
L34047L
tp701
sL42233L
(F4.0
L42239L
tp702
sL24013L
(F94.70520231213872
L24038L
tp703
sL83195L
(F1.3119795003203074
L83207L
tp704
sL91388L
(F2.6666666666666665
L91405L
tp705
sL75005L
(F3.1446467516780103
L75016L
tp706
sL31760L
(F82.0
L31772L
tp707
sL42239L
(F8.0
L42247L
tp708
sL34048L
(F4.87039239001189
L34052L
tp709
sL25857L
(F47.35260115606936
L25869L
tp710
sL99588L
(F26.846294660573243
L99592L
tp711
sL32592L
(F4.0
L32607L
tp712
sL42247L
(F16.0
L42252L
tp713
sL75016L
(F0.9578489608136541
L75029L
tp714
sL50441L
(F16.0
L50452L
tp715
sL42252L
(F32.0
L42270L
tp716
sL25869L
(F94.70520231213872
L25908L
tp717
sL34349L
(F1.2175980975029725
L34357L
tp718
sL34064L
(F1.0
L34103L
tp719
sL58643L
(F2.0
L58663L
tp720
sL50452L
(F32.0
L50461L
tp721
sL75029L
(F1.9156979216273082
L75045L
tp722
sL93062L
(F18.962962962962962
L93075L
tp723
sL91416L
(F1.3333333333333333
L91423L
tp724
sL33050L
(F1.0
L33061L
tp725
sL77504L
(F1.0
L77513L
tp726
sL28890L
(F4.0
L28892L
tp727
sL42270L
(F64.0
L42282L
tp728
sL17696L
(F1.0
L17747L
tp729
sL91696L
(F2.0
L91729L
tp730
sL68512L
(F2.0
L68532L
tp731
sL75045L
(F3.8313958432546165
L75058L
tp732
sL62512L
(F5.3577501635055595
L62547L
tp733
sL96336L
(F1.7226542613181344
L96345L
tp734
sL50473L
(F7.757575757575758
L50479L
tp735
sL42282L
(F128.0
L42294L
tp736
sL83246L
(F5.311719889771438
L83278L
tp737
sL50479L
(F1.9393939393939394
L50484L
tp738
sL58672L
(F0.3076923076923077
L58685L
tp739
sL75058L
(F3.1446467516780103
L75075L
tp740
sL25908L
(F47.35260115606936
L25932L
tp741
sL34103L
(F2.0
L34119L
tp742
sL64236L
(F1.12806389424401
L64287L
tp743
sL58685L
(F0.8
L58693L
tp744
sL75317L
(F3.2
L75322L
tp745
sL42304L
(F2.0
L42315L
tp746
sL78048L
(F1.0
L78064L
tp747
sL78606L
(F10.666666666666666
L78632L
tp748
sL75075L
(F6.289293503356021
L75077L
tp749
sL80370L
(F32.0
L80381L
tp750
sL58693L
(F1.6
L58701L
tp751
sL34119L
(F4.0
L34127L
tp752
sL26232L
(F47.35260115606936
L26244L
tp753
sL42315L
(F4.0
L42326L
tp754
sL25932L
(F47.35260115606936
L25944L
tp755
sL58701L
(F3.2
L58713L
tp756
sL83278L
(F1.5176342542204109
L83293L
tp757
sL34127L
(F2.6666666666666665
L34147L
tp758
sL50512L
(F7.111111111111111
L50517L
tp759
sL99896L
(F1.3791877441841045
L99917L
tp760
sL66899L
(F3.9847876035440333
L66941L
tp761
sL50517L
(F14.222222222222221
L50526L
tp762
sL42326L
(F8.0
L42333L
tp763
sL25944L
(F94.70520231213872
L25983L
tp764
sL58713L
(F1.6
L58722L
tp765
sL42333L
(F16.0
L42335L
tp766
sL13648L
(F1.9749276759884282
L13659L
tp767
sL42335L
(F1.7777777777777777
L42344L
tp768
sL17760L
(F47.35260115606936
L17760L
tp769
sL64400L
(F3.5555555555555554
L64438L
tp770
sL58722L
(F3.2
L58743L
tp771
sL34147L
(F5.333333333333333
L34240L
tp772
sL99686L
(F4.4209390178089585
L99697L
tp773
sL78880L
(F8.0
L78890L
tp774
sL42344L
(F0.19047619047619047
L42362L
tp775
sL17773L
(F2.0
L17790L
tp776
sL50544L
(F2.0
L50546L
tp777
sL99697L
(F2.2104695089044792
L99720L
tp778
sL75125L
(F2.0
L75142L
tp779
sL58743L
(F6.4
L58753L
tp780
sL50552L
(F14.222222222222221
L50555L
tp781
sL42362L
(F0.2857142857142857
L42379L
tp782
sL50555L
(F7.529411764705882
L50563L
tp783
sL66941L
(F7.9695752070880665
L66982L
tp784
sL17790L
(F4.0
L17796L
tp785
sL25983L
(F47.35260115606936
L26007L
tp786
sL91520L
(F2.0
L91525L
tp787
sL58753L
(F12.8
L58761L
tp788
sL50563L
(F7.757575757575758
L50568L
tp789
sL17796L
(F8.0
L17812L
tp790
sL91525L
(F2.6666666666666665
L91542L
tp791
sL75142L
(F4.0
L75148L
tp792
sL50568L
(F15.515151515151516
L50574L
tp793
sL89645L
(F2.0
L89736L
tp794
sL83339L
(F5.24791800128123
L83344L
tp795
sL75148L
(F8.0
L75150L
tp796
sL50574L
(F15.515151515151516
L50577L
tp797
sL42384L
(F8.0
L42393L
tp798
sL50577L
(F12.487804878048781
L50582L
tp799
sL58771L
(F1.7297297297297298
L58780L
tp800
sL75158L
(F2.6666666666666665
L75167L
tp801
sL26007L
(F47.35260115606936
L26019L
tp802
sL17816L
(F1.1428571428571428
L17849L
tp803
sL42393L
(F16.0
L42398L
tp804
sL99738L
(F2.2104695089044792
L99747L
tp805
sL58780L
(F3.4594594594594597
L58788L
tp806
sL42398L
(F8.0
L42409L
tp807
sL75167L
(F1.0666666666666667
L75170L
tp808
sL50592L
(F2.0
L50592L
tp809
sL78064L
(F1.0
L78071L
tp810
sL65360L
(F4.0
L65369L
tp811
sL26019L
(F94.70520231213872
L26058L
tp812
sL58788L
(F6.918918918918919
L58795L
tp813
sL66982L
(F15.939150414176133
L66995L
tp814
sL75176L
(F4.571428571428571
L75181L
tp815
sL58795L
(F13.837837837837839
L58817L
tp816
sL98546L
(F0.6225870193038455
L98569L
tp817
sL101277L
(F4.0
L101300L
tp818
sL42416L
(F7.314285714285714
L42421L
tp819
sL50760L
(F5.333333333333333
L50770L
tp820
sL66995L
(F4.602502723744446
L67016L
tp821
sL42421L
(F3.657142857142857
L42432L
tp822
sL15612L
(F11.130434782608695
L15640L
tp823
sL83384L
(F4.384265453572384
L83393L
tp824
sL17849L
(F1.1428571428571428
L17894L
tp825
sL48031L
(F64.0
L48035L
tp826
sL94864L
(F16.0
L94876L
tp827
sL99775L
(F2.7540763153471173
L99802L
tp828
sL34240L
(F10.666666666666666
L34251L
tp829
sL58817L
(F27.675675675675677
L58827L
tp830
sL50628L
(F2.0
L50638L
tp831
sL42440L
(F16.0
L42450L
tp832
sL31808L
(F82.0
L31839L
tp833
sL26058L
(F47.35260115606936
L26082L
tp834
sL34251L
(F21.333333333333332
L34272L
tp835
sL83406L
(F3.5074123628579073
L83418L
tp836
sL99917L
(F2.758375488368209
L99926L
tp837
sL50640L
(F2.0
L50665L
tp838
sL91601L
(F8.0
L91607L
tp839
sL42450L
(F32.0
L42489L
tp840
sL43940L
(F6.4
L43966L
tp841
sL83418L
(F7.0148247257158145
L83422L
tp842
sL87248L
(F1.0
L87253L
tp843
sL83422L
(F0.5192903496747304
L83437L
tp844
sL34272L
(F42.666666666666664
L34285L
tp845
sL30056L
(F26.666666666666664
L30061L
tp846
sL26082L
(F47.35260115606936
L26094L
tp847
sL17894L
(F1.1428571428571428
L17927L
tp848
sL58860L
(F1.5238095238095237
L58869L
tp849
sL34285L
(F1.9541984732824427
L34290L
tp850
sL26094L
(F94.70520231213872
L26133L
tp851
sL50672L
(F1.0
L50710L
tp852
sL91633L
(F8.0
L91639L
tp853
sL58869L
(F3.0476190476190474
L58926L
tp854
sL72617L
(F4.394080887552578
L72690L
tp855
sL34296L
(F2.6256410256410256
L34309L
tp856
sL37872L
(F1.0
L37876L
tp857
sL42496L
(F8.0
L42532L
tp858
sL53504L
(F1.0
L53538L
tp859
sL34309L
(F1.3128205128205128
L34317L
tp860
sL67078L
(F8.585248020469896
L67102L
tp861
sL17927L
(F1.1428571428571428
L17982L
tp862
sL99848L
(F5.167962783954403
L99860L
tp863
sL75275L
(F2.0
L75280L
tp864
sL34317L
(F2.6256410256410256
L34319L
tp865
sL34319L
(F1.7504273504273504
L34336L
tp866
sL75280L
(F0.6666666666666666
L75292L
tp867
sL50776L
(F0.8648648648648649
L50795L
tp868
sL26133L
(F47.35260115606936
L26157L
tp869
sL50710L
(F2.0
L50743L
tp870
sL99864L
(F3.3181265353989384
L99877L
tp871
sL75292L
(F1.0
L75296L
tp872
sL83485L
(F11.441340782122905
L83499L
tp873
sL67102L
(F16.0
L67122L
tp874
sL34336L
(F2.435196195005945
L34349L
tp875
sL52144L
(F0.5517241379310345
L52146L
tp876
sL91682L
(F2.0
L91695L
tp877
sL42532L
(F16.0
L42543L
tp878
sL40424L
(F2.0
L40440L
tp879
sL99880L
(F3.3181265353989384
L99893L
tp880
sL68248L
(F1.212631498608304
L68261L
tp881
sL83499L
(F22.88268156424581
L83512L
tp882
sL26157L
(F47.35260115606936
L26169L
tp883
sL58926L
(F6.095238095238095
L58974L
tp884
sL42543L
(F32.0
L42545L
tp885
sL75312L
(F1.6
L75317L
tp886
sL67122L
(F2.113519091847265
L67144L
tp887
sL34357L
(F2.435196195005945
L34362L
tp888
sL50743L
(F4.0
L50752L
tp889
sL83512L
(F45.76536312849162
L83517L
tp890
sL26169L
(F94.70520231213872
L26208L
tp891
sL34362L
(F1.6234641300039636
L34382L
tp892
sL17982L
(F2.2857142857142856
L17992L
tp893
sL54064L
(F1.6
L54068L
tp894
sL50752L
(F8.0
L50754L
tp895
sL75360L
(F1.0
L75375L
tp896
sL75333L
(F0.8
L75338L
tp897
sL54337L
(F0.8311688311688312
L54339L
tp898
sL95800L
(F10.666666666666666
L95818L
tp899
sL42568L
(F3.5555555555555554
L42573L
tp900
sL34424L
(F5.251282051282051
L34431L
tp901
sL75338L
(F1.6
L75354L
tp902
sL42573L
(F2.3703703703703702
L42589L
tp903
sL34382L
(F2.9142653859836356
L34392L
tp904
sL28941L
(F2.0
L28952L
tp905
sL91729L
(F4.0
L91785L
tp906
sL50770L
(F2.6666666666666665
L50776L
tp907
sL67155L
(F3.9847876035440333
L67189L
tp908
sL34392L
(F0.771447405593747
L34408L
tp909
sL75354L
(F0.8888888888888888
L75356L
tp910
sL83547L
(F5.720670391061453
L83552L
tp911
sL42589L
(F4.7407407407407405
L42599L
tp912
sL58974L
(F1.7181208053691275
L58998L
tp913
sL26208L
(F47.35260115606936
L26232L
tp914
sL94480L
(F16.855967078189302
L94513L
tp915
sL23483L
(F47.35260115606936
L23495L
tp916
sL13477L
(F2.3378995433789953
L13490L
tp917
sL87072L
(F4.571428571428571
L87082L
tp918
sL34408L
(F1.542894811187494
L34421L
tp919
sL35772L
(F2.6771241830065358
L35777L
tp920
sL50795L
(F1.7297297297297298
L50803L
tp921
sL83564L
(F4.77667638483965
L83591L
tp922
sL75375L
(F2.0
L75386L
tp923
sL42608L
(F16.0
L42616L
tp924
sL59968L
(F1.032258064516129
L59985L
tp925
sL67189L
(F7.9695752070880665
L67250L
tp926
sL58998L
(F0.41390460792239286
L59025L
tp927
sL61431L
(F0.668189233278956
L61454L
tp928
sL50808L
(F1.3333333333333333
L50812L
tp929
sL75386L
(F1.3333333333333333
L75388L
tp930
sL50812L
(F1.7297297297297298
L50817L
tp931
sL36608L
(F8.0
L36620L
tp932
sL18048L
(F2.2857142857142856
L18060L
tp933
sL52160L
(F1.0
L52170L
tp934
sL82360L
(F2.0
L82375L
tp935
sL26244L
(F94.70520231213872
L26283L
tp936
sL83591L
(F9.5533527696793
L83618L
tp937
sL75400L
(F1.3333333333333333
L75406L
tp938
sL90391L
(F5.818181818181818
L90400L
tp939
sL75406L
(F2.6666666666666665
L75417L
tp940
sL42640L
(F4.0
L42651L
tp941
sL28698L
(F1.6
L28714L
tp942
sL86528L
(F1.0
L86598L
tp943
sL59032L
(F6.4
L59038L
tp944
sL75417L
(F5.333333333333333
L75422L
tp945
sL42651L
(F8.0
L42660L
tp946
sL91805L
(F4.0
L91808L
tp947
sL59038L
(F6.4
L59061L
tp948
sL34464L
(F2.0
L34473L
tp949
sL104048L
(F1.3333333333333333
L104052L
tp950
sL100003L
(F1.8598704404007083
L100028L
tp951
sL42660L
(F16.0
L42665L
tp952
sL19424L
(F0.6666666666666666
L19455L
tp953
sL83624L
(F3.0352685084408217
L83692L
tp954
sL26283L
(F47.35260115606936
L26307L
tp955
sL34480L
(F1.0
L34485L
tp956
sL35784L
(F2.6982872200263506
L35794L
tp957
sL67250L
(F15.939150414176133
L67276L
tp958
sL34485L
(F2.0
L34498L
tp959
sL59064L
(F12.19047619047619
L59079L
tp960
sL13432L
(F2.3703703703703702
L13444L
tp961
sL20767L
(F0.6756845925437149
L20776L
tp962
sL100028L
(F1.30066762055145
L100039L
tp963
sL42688L
(F1.0
L42710L
tp964
sL41248L
(F2.0
L41266L
tp965
sL34498L
(F4.0
L34512L
tp966
sL26307L
(F47.35260115606936
L26319L
tp967
sL59079L
(F4.995121951219512
L59113L
tp968
sL67276L
(F7.9695752070880665
L67289L
tp969
sL91440L
(F1.0
L91468L
tp970
sL34512L
(F1.0
L34556L
tp971
sL75473L
(F2.0
L75480L
tp972
sL40157L
(F7.529411764705882
L40179L
tp973
sL42710L
(F1.0
L42712L
tp974
sL42712L
(F2.0
L42716L
tp975
sL67289L
(F2.6666666666666665
L67302L
tp976
sL100059L
(F1.9273915734929463
L100075L
tp977
sL42716L
(F4.0
L42721L
tp978
sL14243L
(F2.6666666666666665
L14248L
tp979
sL18144L
(F1.0
L18163L
tp980
sL42721L
(F0.4
L42735L
tp981
sL67302L
(F2.292879217764854
L67315L
tp982
sL59113L
(F2.0
L59124L
tp983
sL100075L
(F1.2849277156619643
L100087L
tp984
sL81760L
(F0.6666666666666666
L81766L
tp985
sL35794L
(F5.396574440052701
L35804L
tp986
sL38794L
(F4.0
L38803L
tp987
sL42735L
(F0.8
L42740L
tp988
sL83696L
(F0.8746530002135383
L83713L
tp989
sL20776L
(F1.3513691850874299
L20836L
tp990
sL18163L
(F2.0
L18180L
tp991
sL38526L
(F2.0
L38539L
tp992
sL26358L
(F47.35260115606936
L26382L
tp993
sL75511L
(F2.0
L75516L
tp994
sL42744L
(F2.0
L42751L
tp995
sL39340L
(F128.0
L39374L
tp996
sL34556L
(F1.6
L34561L
tp997
sL100094L
(F1.2849277156619643
L100132L
tp998
sL42751L
(F4.0
L42758L
tp999
sL59136L
(F1.0
L59167L
tp1000
sL42624L
(F4.0
L42632L
tp1001
sL28971L
(F1.6
L28984L
tp1002
sL18180L
(F0.8
L18218L
tp1003
sL32248L
(F6.368932038834951
L32256L
tp1004
sL42758L
(F8.0
L42763L
tp1005
sL92533L
(F1.3333333333333333
L92538L
tp1006
sL34568L
(F2.0
L34570L
tp1007
sL83721L
(F1.4541258958485876
L83731L
tp1008
sL42763L
(F2.6666666666666665
L42772L
tp1009
sL58496L
(F1.0
L58515L
tp1010
sL26382L
(F47.35260115606936
L26394L
tp1011
sL50959L
(F4.0
L50975L
tp1012
sL34576L
(F1.0
L34659L
tp1013
sL83731L
(F0.7270629479242938
L83774L
tp1014
sL42776L
(F4.0
L42811L
tp1015
sL34436L
(F1.542894811187494
L34441L
tp1016
sL26394L
(F94.70520231213872
L26433L
tp1017
sL39392L
(F13.473684210526315
L39406L
tp1018
sL67358L
(F7.9695752070880665
L67399L
tp1019
sL50975L
(F1.0
L51009L
tp1020
sL45888L
(F1.6
L45895L
tp1021
sL33072L
(F1.0
L33085L
tp1022
sL98245L
(F1.666599536358482
L98253L
tp1023
sL91943L
(F1.3333333333333333
L91971L
tp1024
sL100136L
(F2.4983898454151325
L100150L
tp1025
sL18218L
(F1.6
L18233L
tp1026
sL59184L
(F4.0
L59191L
tp1027
sL75573L
(F1.1428571428571428
L75583L
tp1028
sL100150L
(F4.996779690830265
L100161L
tp1029
sL59191L
(F2.0
L59211L
tp1030
sL18233L
(F0.8
L18253L
tp1031
sL34432L
(F4.87039239001189
L34436L
tp1032
sL15888L
(F4.571428571428571
L15907L
tp1033
sL75583L
(F0.7619047619047619
L75587L
tp1034
sL42816L
(F5.333333333333333
L42823L
tp1035
sL26433L
(F47.35260115606936
L26457L
tp1036
sL91971L
(F1.0
L91985L
tp1037
sL40352L
(F1.0
L40363L
tp1038
sL42823L
(F10.666666666666666
L42836L
tp1039
sL42616L
(F32.0
L42621L
tp1040
sL59211L
(F4.0
L59217L
tp1041
sL18256L
(F2.0
L18266L
tp1042
sL91985L
(F2.0
L92006L
tp1043
sL67412L
(F2.6026617951480073
L67422L
tp1044
sL51029L
(F1.2075471698113207
L51034L
tp1045
sL50408L
(F4.0
L50417L
tp1046
sL59224L
(F2.6666666666666665
L59237L
tp1047
sL26457L
(F47.35260115606936
L26469L
tp1048
sL18266L
(F2.0
L18333L
tp1049
sL53562L
(F0.8888888888888888
L53566L
tp1050
sL67422L
(F15.515151515151516
L67437L
tp1051
sL42848L
(F7.111111111111111
L42848L
tp1052
sL34448L
(F1.0
L34456L
tp1053
sL34659L
(F2.0
L34670L
tp1054
sL26469L
(F94.70520231213872
L26508L
tp1055
sL92006L
(F4.0
L92026L
tp1056
sL30128L
(F2.4242424242424243
L30136L
tp1057
sL69948L
(F8.0
L69973L
tp1058
sL29200L
(F1.1428571428571428
L29213L
tp1059
sL97992L
(F1.2491949227075663
L98005L
tp1060
sL51053L
(F9.660377358490566
L51057L
tp1061
sL34672L
(F1.6
L34677L
tp1062
sL51057L
(F4.830188679245283
L51069L
tp1063
sL34677L
(F3.2
L34690L
tp1064
sL92026L
(F8.0
L92032L
tp1065
sL59259L
(F1.7777777777777777
L59271L
tp1066
sL51069L
(F1.610062893081761
L51086L
tp1067
sL44800L
(F1.103448275862069
L44822L
tp1068
sL54933L
(F6.2439024390243905
L54942L
tp1069
sL92032L
(F1.3333333333333333
L92069L
tp1070
sL16704L
(F1.0
L16714L
tp1071
sL34690L
(F6.4
L34736L
tp1072
sL75652L
(F2.0
L75661L
tp1073
sL83848L
(F8.768530907144768
L83859L
tp1074
sL26508L
(F47.35260115606936
L26532L
tp1075
sL75661L
(F2.0
L75666L
tp1076
sL67471L
(F20.897959183673468
L67502L
tp1077
sL51088L
(F1.1428571428571428
L51094L
tp1078
sL34456L
(F2.0
L34458L
tp1079
sL42898L
(F0.2857142857142857
L42902L
tp1080
sL83859L
(F17.537061814289537
L83925L
tp1081
sL42902L
(F0.4444444444444444
L42933L
tp1082
sL100251L
(F1.7068531350282277
L100263L
tp1083
sL18333L
(F2.0
L18362L
tp1084
sL39891L
(F1.8823529411764706
L39920L
tp1085
sL75680L
(F1.0
L75720L
tp1086
sL35824L
(F17.1605132233569
L35834L
tp1087
sL26532L
(F47.35260115606936
L26544L
tp1088
sL92069L
(F2.2857142857142856
L92080L
tp1089
sL100263L
(F7.529411764705882
L100274L
tp1090
sL51113L
(F1.391304347826087
L51156L
tp1091
sL93170L
(F6.7368421052631575
L93175L
tp1092
sL67502L
(F31.03030303030303
L67515L
tp1093
sL34736L
(F3.2
L34749L
tp1094
sL100274L
(F15.058823529411764
L100281L
tp1095
sL42933L
(F0.8888888888888888
L42935L
tp1096
sL42935L
(F1.7777777777777777
L42944L
tp1097
sL100281L
(F7.529411764705882
L100324L
tp1098
sL92090L
(F1.4545454545454546
L92127L
tp1099
sL67515L
(F20.897959183673468
L67542L
tp1100
sL34749L
(F0.6956521739130435
L34758L
tp1101
sL18368L
(F4.0
L18384L
tp1102
sL75424L
(F2.6666666666666665
L75431L
tp1103
sL78192L
(F1.0
L78213L
tp1104
sL96545L
(F1.2478554292804278
L96562L
tp1105
sL59332L
(F2.4674698795180725
L59339L
tp1106
sL34758L
(F0.8
L34770L
tp1107
sL75720L
(F2.0
L75732L
tp1108
sL94540L
(F2.4615384615384617
L94557L
tp1109
sL59339L
(F0.5565217391304348
L59347L
tp1110
sL40712L
(F3.2
L40721L
tp1111
sL99632L
(F2.2104695089044792
L99686L
tp1112
sL18384L
(F1.0
L18412L
tp1113
sL34770L
(F1.6
L34779L
tp1114
sL59347L
(F0.9411764705882353
L59362L
tp1115
sL51156L
(F0.8421052631578947
L51161L
tp1116
sL42965L
(F0.7272727272727273
L42989L
tp1117
sL67542L
(F4.585758435529708
L67614L
tp1118
sL26583L
(F47.35260115606936
L26607L
tp1119
sL54896L
(F3.1219512195121952
L54903L
tp1120
sL34779L
(F3.2
L34822L
tp1121
sL92127L
(F2.909090909090909
L92147L
tp1122
sL51168L
(F4.830188679245283
L51202L
tp1123
sL57680L
(F1.0
L57740L
tp1124
sL59362L
(F1.8823529411764706
L59370L
tp1125
sL75748L
(F8.0
L75761L
tp1126
sL72700L
(F17.57632355021031
L72714L
tp1127
sL59370L
(F3.764705882352941
L59382L
tp1128
sL18412L
(F1.0
L18455L
tp1129
sL42989L
(F1.4545454545454546
L42992L
tp1130
sL32256L
(F12.737864077669903
L32264L
tp1131
sL26607L
(F47.35260115606936
L26619L
tp1132
sL42992L
(F0.29493087557603687
L43023L
tp1133
sL75761L
(F16.0
L75769L
tp1134
sL100338L
(F6.666398145433928
L100359L
tp1135
sL92147L
(F5.818181818181818
L92157L
tp1136
sL59382L
(F0.7710843373493976
L59420L
tp1137
sL16162L
(F3.3537689985159407
L16174L
tp1138
sL75769L
(F32.0
L75771L
tp1139
sL26619L
(F94.70520231213872
L26658L
tp1140
sL83964L
(F17.537061814289537
L84001L
tp1141
sL92157L
(F1.9393939393939394
L92183L
tp1142
sL75776L
(F7.111111111111111
L75793L
tp1143
sL39936L
(F15.515151515151516
L39960L
tp1144
sL34822L
(F6.4
L34832L
tp1145
sL100359L
(F13.332796290867856
L100363L
tp1146
sL100363L
(F1.5384472380711607
L100385L
tp1147
sL31984L
(F0.8093769278223318
L31992L
tp1148
sL43023L
(F0.5898617511520737
L43029L
tp1149
sL34832L
(F0.7272727272727273
L34853L
tp1150
sL75793L
(F14.222222222222221
L75801L
tp1151
sL51221L
(F2.0
L51226L
tp1152
sL18455L
(F2.0
L18462L
tp1153
sL43032L
(F1.7777777777777777
L43043L
tp1154
sL75801L
(F3.5555555555555554
L75813L
tp1155
sL59420L
(F1.5421686746987953
L59455L
tp1156
sL18462L
(F1.0
L18482L
tp1157
sL51232L
(F2.0
L51234L
tp1158
sL100385L
(F3.8547831469858926
L100394L
tp1159
sL26658L
(F47.35260115606936
L26682L
tp1160
sL43043L
(F3.5555555555555554
L43045L
tp1161
sL34853L
(F1.4545454545454546
L34864L
tp1162
sL92198L
(F2.909090909090909
L92206L
tp1163
sL100394L
(F7.709566293971785
L100406L
tp1164
sL75820L
(F4.830188679245283
L75825L
tp1165
sL92206L
(F1.4545454545454546
L92211L
tp1166
sL84015L
(F3.4986120008541532
L84095L
tp1167
sL34864L
(F1.4545454545454546
L34869L
tp1168
sL75825L
(F9.660377358490566
L75854L
tp1169
sL18482L
(F2.0
L18532L
tp1170
sL92211L
(F2.909090909090909
L92219L
tp1171
sL27348L
(F5.259288981622663
L27356L
tp1172
sL100406L
(F4.267132837570569
L100427L
tp1173
sL67639L
(F6.259916973309225
L67652L
tp1174
sL26682L
(F47.35260115606936
L26694L
tp1175
sL92219L
(F0.6274509803921569
L92259L
tp1176
sL51260L
(F2.0
L51355L
tp1177
sL18101L
(F2.0
L18122L
tp1178
sL34880L
(F1.0
L34945L
tp1179
sL33120L
(F1.0
L33156L
tp1180
sL67652L
(F5.97718140531605
L67728L
tp1181
sL26694L
(F94.70520231213872
L26733L
tp1182
sL100427L
(F8.534265675141137
L100436L
tp1183
sL75854L
(F1.4797687861271676
L75866L
tp1184
sL103728L
(F1.0
L103741L
tp1185
sL43088L
(F7.111111111111111
L43096L
tp1186
sL100436L
(F1.817542892123905
L100462L
tp1187
sL19984L
(F4.0
L20017L
tp1188
sL22201L
(F15.351604591239166
L22209L
tp1189
sL43096L
(F14.222222222222221
L43106L
tp1190
sL37220L
(F2.0
L37277L
tp1191
sL82277L
(F2.0
L82294L
tp1192
sL75872L
(F8.0
L75875L
tp1193
sL19472L
(F2.6666666666666665
L19484L
tp1194
sL43106L
(F28.444444444444443
L43140L
tp1195
sL75875L
(F2.6666666666666665
L75880L
tp1196
sL18532L
(F1.0
L18545L
tp1197
sL75880L
(F5.333333333333333
L75889L
tp1198
sL29031L
(F2.0
L29040L
tp1199
sL26733L
(F47.35260115606936
L26757L
tp1200
sL100462L
(F1.666599536358482
L100476L
tp1201
sL12944L
(F6.666666666666666
L12944L
tp1202
sL59504L
(F2.4674698795180725
L59524L
tp1203
sL75889L
(F10.666666666666666
L75929L
tp1204
sL94560L
(F9.481481481481481
L94595L
tp1205
sL36352L
(F2.0
L36371L
tp1206
sL18551L
(F1.3333333333333333
L18566L
tp1207
sL12256L
(F4.0
L12256L
tp1208
sL39080L
(F16.0
L39089L
tp1209
sL100476L
(F1.2499811191255186
L100492L
tp1210
sL92285L
(F7.6992481203007515
L92291L
tp1211
sL84095L
(F35.07412362857907
L84166L
tp1212
sL34945L
(F2.0
L34959L
tp1213
sL92291L
(F15.398496240601503
L92299L
tp1214
sL59524L
(F4.934939759036145
L59530L
tp1215
sL26757L
(F47.35260115606936
L26769L
tp1216
sL18566L
(F1.0
L18587L
tp1217
sL30401L
(F1.6842105263157894
L30410L
tp1218
sL43144L
(F7.111111111111111
L43151L
tp1219
sL59530L
(F2.4674698795180725
L59556L
tp1220
sL92299L
(F7.6992481203007515
L92314L
tp1221
sL100492L
(F9.997583795507014
L100543L
tp1222
sL34959L
(F0.8
L34982L
tp1223
sL67728L
(F11.9543628106321
L67771L
tp1224
sL26769L
(F94.70520231213872
L26808L
tp1225
sL43162L
(F9.481481481481481
L43191L
tp1226
sL51355L
(F4.0
L51361L
tp1227
sL37440L
(F32.0
L37474L
tp1228
sL18592L
(F4.0
L18602L
tp1229
sL29040L
(F4.0
L29046L
tp1230
sL34982L
(F0.8
L34986L
tp1231
sL41329L
(F2.0
L41360L
tp1232
sL51368L
(F2.0
L51456L
tp1233
sL31772L
(F0.27968450223832875
L31779L
tp1234
sL34986L
(F0.2529722385202112
L35018L
tp1235
sL100039L
(F0.9636957867464732
L100059L
tp1236
sL18608L
(F2.0
L18625L
tp1237
sL30080L
(F26.666666666666664
L30088L
tp1238
sL84543L
(F14.222222222222221
L84550L
tp1239
sL92340L
(F1.3333333333333333
L92345L
tp1240
sL26808L
(F47.35260115606936
L26832L
tp1241
sL92345L
(F2.6666666666666665
L92364L
tp1242
sL67771L
(F9.171516871059415
L67788L
tp1243
sL16327L
(F4.620417371686408
L16339L
tp1244
sL100543L
(F19.995167591014027
L100594L
tp1245
sL43200L
(F0.8888888888888888
L43220L
tp1246
sL27680L
(F1.0
L27719L
tp1247
sL65910L
(F6.914017467590831
L65919L
tp1248
sL84166L
(F3.4986120008541532
L84292L
tp1249
sL18632L
(F2.0
L18641L
tp1250
sL35018L
(F0.5059444770404224
L35031L
tp1251
sL53623L
(F0.6153846153846154
L53649L
tp1252
sL67788L
(F15.939150414176133
L67817L
tp1253
sL32536L
(F2.0
L32542L
tp1254
sL26832L
(F47.35260115606936
L26844L
tp1255
sL43220L
(F1.7777777777777777
L43230L
tp1256
sL95549L
(F4.7407407407407405
L95560L
tp1257
sL99368L
(F0.691090228685844
L99385L
tp1258
sL30096L
(F26.666666666666664
L30104L
tp1259
sL26319L
(F94.70520231213872
L26358L
tp1260
sL26844L
(F94.70520231213872
L26883L
tp1261
sL45434L
(F2.0
L45442L
tp1262
sL43230L
(F3.5555555555555554
L43235L
tp1263
sL18656L
(F1.0
L18673L
tp1264
sL18128L
(F2.0
L18138L
tp1265
sL76002L
(F4.0
L76015L
tp1266
sL43235L
(F7.111111111111111
L43270L
tp1267
sL63634L
(F3.0476190476190474
L63642L
tp1268
sL92392L
(F7.6992481203007515
L92417L
tp1269
sL67817L
(F32.0
L67833L
tp1270
sL76015L
(F8.0
L76029L
tp1271
sL59632L
(F2.0
L59645L
tp1272
sL18673L
(F2.0
L18680L
tp1273
sL100594L
(F39.990335182028055
L100626L
tp1274
sL32695L
(F16.0
L32697L
tp1275
sL35060L
(F3.2
L35072L
tp1276
sL40448L
(F0.2782608695652174
L40463L
tp1277
sL19171L
(F2.0
L19195L
tp1278
sL18680L
(F1.0
L18720L
tp1279
sL67833L
(F64.0
L67848L
tp1280
sL35882L
(F11.4403421489046
L35935L
tp1281
sL35072L
(F0.8888888888888888
L35092L
tp1282
sL29056L
(F1.6
L29064L
tp1283
sL26883L
(F47.35260115606936
L26907L
tp1284
sL43270L
(F2.3703703703703702
L43278L
tp1285
sL67848L
(F15.939150414176133
L67862L
tp1286
sL76042L
(F32.0
L76060L
tp1287
sL43278L
(F4.7407407407407405
L43280L
tp1288
sL43280L
(F0.8311688311688312
L43304L
tp1289
sL75480L
(F1.0
L75511L
tp1290
sL100626L
(F14.124137931034483
L100653L
tp1291
sL14800L
(F8.0
L14817L
tp1292
sL35092L
(F2.4615384615384617
L35112L
tp1293
sL67862L
(F15.939150414176133
L67875L
tp1294
sL26907L
(F47.35260115606936
L26914L
tp1295
sL76060L
(F64.0
L76073L
tp1296
sL59679L
(F1.0
L59688L
tp1297
sL18720L
(F2.0
L18728L
tp1298
sL64560L
(F0.9524058653412972
L64578L
tp1299
sL26914L
(F3.8379011478097915
L26947L
tp1300
sL67875L
(F31.878300828352266
L67907L
tp1301
sL18728L
(F1.0
L18766L
tp1302
sL76073L
(F128.0
L76078L
tp1303
sL51500L
(F2.0
L51522L
tp1304
sL82177L
(F2.0
L82185L
tp1305
sL76078L
(F256.0
L76080L
tp1306
sL55005L
(F2.0
L55030L
tp1307
sL43312L
(F3.5555555555555554
L43348L
tp1308
sL74120L
(F4.488017839487414
L74134L
tp1309
sL47152L
(F3.56794425087108
L47191L
tp1310
sL59699L
(F1.0
L59704L
tp1311
sL76085L
(F1.0
L76087L
tp1312
sL59704L
(F2.0
L59734L
tp1313
sL35132L
(F2.206896551724138
L35141L
tp1314
sL28448L
(F1.0
L28483L
tp1315
sL76096L
(F1.0
L76123L
tp1316
sL57005L
(F2.5664160401002505
L57013L
tp1317
sL100674L
(F3.7355221158230734
L100679L
tp1318
sL26947L
(F30.703209182478332
L26993L
tp1319
sL56272L
(F8.0
L56275L
tp1320
sL35141L
(F4.413793103448276
L35143L
tp1321
sL100679L
(F3.7197408808014165
L100700L
tp1322
sL84296L
(F0.9654115844676212
L84309L
tp1323
sL90508L
(F2.6666666666666665
L90519L
tp1324
sL67915L
(F5.379126426590249
L67926L
tp1325
sL18766L
(F2.0
L18774L
tp1326
sL82110L
(F1.3333333333333333
L82123L
tp1327
sL35152L
(F0.6772486772486772
L35160L
tp1328
sL29070L
(F3.5555555555555554
L29075L
tp1329
sL67926L
(F8.04368062678836
L67961L
tp1330
sL72761L
(F0.5275631117980423
L72774L
tp1331
sL35160L
(F1.024
L35170L
tp1332
sL79732L
(F2.0
L79737L
tp1333
sL84314L
(F3.7325435698826746
L84350L
tp1334
sL59739L
(F2.0
L59753L
tp1335
sL100700L
(F7.439481761602833
L100709L
tp1336
sL92510L
(F2.0
L92533L
tp1337
sL43359L
(F1.8823529411764706
L43379L
tp1338
sL70032L
(F1.0
L70050L
tp1339
sL35170L
(F2.048
L35177L
tp1340
sL100709L
(F53.090024566383015
L100730L
tp1341
sL78225L
(F8.0
L78232L
tp1342
sL76136L
(F1.0
L76149L
tp1343
sL35177L
(F4.096
L35203L
tp1344
sL22721L
(F47.35260115606936
L22742L
tp1345
sL49554L
(F2.0
L49567L
tp1346
sL26993L
(F1.8776878447102643
L27004L
tp1347
sL55728L
(F2.25612778848802
L55728L
tp1348
sL76149L
(F2.0
L76159L
tp1349
sL94736L
(F12.761036934043851
L94750L
tp1350
sL43384L
(F2.3486238532110093
L43402L
tp1351
sL67961L
(F16.08736125357672
L68017L
tp1352
sL100730L
(F106.18004913276603
L100739L
tp1353
sL27004L
(F15.351604591239166
L27084L
tp1354
sL84350L
(F1.9308231689352424
L84392L
tp1355
sL76159L
(F4.0
L76161L
tp1356
sL19520L
(F1.6
L19577L
tp1357
sL35203L
(F8.192
L35208L
tp1358
sL92549L
(F1.7549271636675237
L92556L
tp1359
sL35208L
(F0.5871559633027523
L35217L
tp1360
sL46828L
(F6.2439024390243905
L46836L
tp1361
sL43402L
(F0.5898617511520737
L43407L
tp1362
sL65943L
(F0.10350253710557317
L65969L
tp1363
sL92556L
(F1.0583979328165374
L92565L
tp1364
sL51600L
(F1.0
L51827L
tp1365
sL35217L
(F1.1743119266055047
L35232L
tp1366
sL92565L
(F2.1167958656330748
L92587L
tp1367
sL59800L
(F1.3333333333333333
L59819L
tp1368
sL76188L
(F1.0
L76212L
tp1369
sL16176L
(F2.763366503626244
L16227L
tp1370
sL18848L
(F2.0
L18894L
tp1371
sL55184L
(F1.0
L55190L
tp1372
sL43648L
(F5.12
L43666L
tp1373
sL72774L
(F0.6907251264755481
L72841L
tp1374
sL14065L
(F2.0
L14128L
tp1375
sL84392L
(F9.5533527696793
L84405L
tp1376
sL59819L
(F2.6666666666666665
L59827L
tp1377
sL92592L
(F5.333333333333333
L92602L
tp1378
sL68017L
(F31.878300828352266
L68030L
tp1379
sL35250L
(F1.4797687861271676
L35265L
tp1380
sL59827L
(F1.3333333333333333
L59832L
tp1381
sL76212L
(F2.0
L76247L
tp1382
sL100791L
(F6.2343987823439875
L100800L
tp1383
sL59832L
(F2.6666666666666665
L59843L
tp1384
sL92602L
(F10.666666666666666
L92616L
tp1385
sL43453L
(F0.6666666666666666
L43458L
tp1386
sL68030L
(F63.75660165670453
L68043L
tp1387
sL84416L
(F1.0
L84457L
tp1388
sL35265L
(F0.7398843930635838
L35274L
tp1389
sL43458L
(F1.3333333333333333
L43460L
tp1390
sL59843L
(F1.3333333333333333
L59848L
tp1391
sL43460L
(F2.6666666666666665
L43464L
tp1392
sL55030L
(F1.0
L55040L
tp1393
sL78241L
(F3.2
L78246L
tp1394
sL92616L
(F14.222222222222221
L92627L
tp1395
sL23628L
(F47.35260115606936
L23647L
tp1396
sL35274L
(F1.0118577075098814
L35398L
tp1397
sL68043L
(F127.51320331340906
L68055L
tp1398
sL27084L
(F7.675802295619583
L27127L
tp1399
sL43469L
(F10.666666666666666
L43473L
tp1400
sL18896L
(F2.0
L18956L
tp1401
sL43473L
(F0.735632183908046
L43480L
tp1402
sL100818L
(F2.4366448542534207
L100823L
tp1403
sL92627L
(F8.533333333333333
L92631L
tp1404
sL68055L
(F255.02640662681813
L68059L
tp1405
sL76251L
(F1.3333333333333333
L76265L
tp1406
sL59868L
(F1.3333333333333333
L59872L
tp1407
sL68062L
(F1.9844373967153979
L68073L
tp1408
sL43488L
(F2.6666666666666665
L43493L
tp1409
sL52304L
(F2.0
L52331L
tp1410
sL40661L
(F0.3256997455470738
L40677L
tp1411
sL43493L
(F5.333333333333333
L43500L
tp1412
sL59879L
(F1.3333333333333333
L59891L
tp1413
sL94178L
(F3.3108251887975717
L94183L
tp1414
sL84457L
(F2.0
L84484L
tp1415
sL29095L
(F2.0
L29104L
tp1416
sL43500L
(F10.666666666666666
L43505L
tp1417
sL100848L
(F2.1968356127648163
L100863L
tp1418
sL43505L
(F2.56
L43513L
tp1419
sL59891L
(F2.6666666666666665
L59906L
tp1420
sL31332L
(F164.0
L31362L
tp1421
sL27127L
(F15.351604591239166
L27182L
tp1422
sL43513L
(F5.12
L43527L
tp1423
sL50943L
(F2.0
L50959L
tp1424
sL76285L
(F5.333333333333333
L76294L
tp1425
sL100863L
(F15.058823529411764
L100885L
tp1426
sL30464L
(F12.8
L30481L
tp1427
sL59906L
(F5.333333333333333
L59929L
tp1428
sL84484L
(F4.0
L84495L
tp1429
sL92677L
(F9.481481481481481
L92684L
tp1430
sL76294L
(F10.666666666666666
L76302L
tp1431
sL43527L
(F1.2610837438423645
L43534L
tp1432
sL15447L
(F4.0
L15462L
tp1433
sL92684L
(F4.7407407407407405
L92704L
tp1434
sL48368L
(F0.6666666666666666
L48408L
tp1435
sL76302L
(F5.333333333333333
L76317L
tp1436
sL84495L
(F2.6666666666666665
L84521L
tp1437
sL18960L
(F1.0
L18965L
tp1438
sL76688L
(F1.0
L76694L
tp1439
sL100885L
(F3.333199072716964
L100906L
tp1440
sL31744L
(F82.0
L31758L
tp1441
sL59929L
(F1.0666666666666667
L59953L
tp1442
sL43546L
(F10.666666666666666
L43581L
tp1443
sL87416L
(F2.0
L87432L
tp1444
sL76317L
(F1.4545454545454546
L76330L
tp1445
sL92704L
(F9.481481481481481
L92724L
tp1446
sL82352L
(F1.0
L82360L
tp1447
sL50184L
(F5.818181818181818
L50189L
tp1448
sL98737L
(F9.416091954022988
L98748L
tp1449
sL68137L
(F3.1949887718466394
L68150L
tp1450
sL76330L
(F0.8
L76344L
tp1451
sL18988L
(F2.0
L19002L
tp1452
sL27182L
(F3.8379011478097915
L27236L
tp1453
sL59953L
(F2.1333333333333333
L59965L
tp1454
sL80012L
(F16.0
L80028L
tp1455
sL100915L
(F4.576140604112609
L100936L
tp1456
sL92724L
(F6.320987654320987
L92742L
tp1457
sL68150L
(F6.389977543693279
L68154L
tp1458
sL76344L
(F0.8888888888888888
L76364L
tp1459
sL19002L
(F4.0
L19007L
tp1460
sL35935L
(F3.2
L35958L
tp1461
sL59965L
(F4.266666666666667
L59968L
tp1462
sL19007L
(F2.0
L19032L
tp1463
sL43584L
(F3.5555555555555554
L43592L
tp1464
sL64608L
(F1.0
L64671L
tp1465
sL35398L
(F2.0237154150197627
L35414L
tp1466
sL43592L
(F7.111111111111111
L43609L
tp1467
sL44824L
(F1.103448275862069
L44831L
tp1468
sL69920L
(F2.0
L69926L
tp1469
sL76368L
(F5.333333333333333
L76378L
tp1470
sL59985L
(F0.9343065693430657
L60024L
tp1471
sL92754L
(F2.615581098339719
L92763L
tp1472
sL47552L
(F2.2857142857142856
L47561L
tp1473
sL35414L
(F4.047430830039525
L35431L
tp1474
sL40880L
(F1.0
L40899L
tp1475
sL19032L
(F4.0
L19043L
tp1476
sL43609L
(F14.222222222222221
L43615L
tp1477
sL14000L
(F1.0
L14065L
tp1478
sL53690L
(F1.0
L53692L
tp1479
sL53008L
(F0.5714285714285714
L53017L
tp1480
sL43615L
(F28.444444444444443
L43626L
tp1481
sL92768L
(F2.0
L92773L
tp1482
sL38672L
(F1.0
L38758L
tp1483
sL19043L
(F2.0
L19063L
tp1484
sL27236L
(F7.675802295619583
L27249L
tp1485
sL84581L
(F3.2
L84590L
tp1486
sL68198L
(F3.1949887718466394
L68204L
tp1487
sL35431L
(F8.09486166007905
L35499L
tp1488
sL47369L
(F0.6311248073959939
L47374L
tp1489
sL43626L
(F7.111111111111111
L43639L
tp1490
sL69904L
(F4.0
L69911L
tp1491
sL68204L
(F6.389977543693279
L68212L
tp1492
sL84590L
(F5.112386338704566
L84649L
tp1493
sL76399L
(F21.333333333333332
L76416L
tp1494
sL92784L
(F1.1800633823105733
L92799L
tp1495
sL27249L
(F1.3148222454056657
L27271L
tp1496
sL51827L
(F2.0
L51838L
tp1497
sL68212L
(F1.2300272097454144
L68229L
tp1498
sL100985L
(F25.854546426253865
L100996L
tp1499
sL65557L
(F7.757575757575758
L65576L
tp1500
sL51838L
(F2.0
L51843L
tp1501
sL92800L
(F9.481481481481481
L92810L
tp1502
sL29120L
(F1.0
L29142L
tp1503
sL100996L
(F15.51272785575232
L101020L
tp1504
sL68229L
(F3.0464813572697134
L68238L
tp1505
sL13384L
(F2.3703703703703702
L13392L
tp1506
sL27271L
(F2.6296444908113314
L27278L
tp1507
sL74832L
(F0.31306182531270627
L74849L
tp1508
sL92810L
(F18.962962962962962
L92825L
tp1509
sL60043L
(F2.6666666666666665
L60050L
tp1510
sL63653L
(F12.19047619047619
L63660L
tp1511
sL68238L
(F2.0629504843439825
L68248L
tp1512
sL19088L
(F2.0
L19094L
tp1513
sL60050L
(F5.333333333333333
L60066L
tp1514
sL75545L
(F2.0
L75568L
tp1515
sL43672L
(F10.24
L43717L
tp1516
sL92825L
(F37.925925925925924
L92829L
tp1517
sL60848L
(F6.023529411764706
L60864L
tp1518
sL101020L
(F15.51272785575232
L101025L
tp1519
sL92829L
(F12.641975308641975
L92847L
tp1520
sL27294L
(F30.703209182478332
L27313L
tp1521
sL19104L
(F1.0
L19110L
tp1522
sL101025L
(F20.683637141003093
L101041L
tp1523
sL55067L
(F2.0
L55071L
tp1524
sL68261L
(F31.878300828352266
L68271L
tp1525
sL19110L
(F0.5
L19152L
tp1526
sL60072L
(F2.6666666666666665
L60088L
tp1527
sL84649L
(F10.224772677409131
L84652L
tp1528
sL35499L
(F16.1897233201581
L35504L
tp1529
sL84652L
(F5.112386338704566
L84664L
tp1530
sL68271L
(F18.410010894977784
L68292L
tp1531
sL76464L
(F1.0
L76478L
tp1532
sL101041L
(F38.7818196393808
L101058L
tp1533
sL96656L
(F3.4761828919347146
L96685L
tp1534
sL84664L
(F10.224772677409131
L84673L
tp1535
sL59167L
(F2.0
L59178L
tp1536
sL76478L
(F2.0
L76480L
tp1537
sL76480L
(F1.0
L76486L
tp1538
sL84673L
(F20.449545354818262
L84686L
tp1539
sL101058L
(F77.5636392787616
L101064L
tp1540
sL43464L
(F5.333333333333333
L43469L
tp1541
sL76486L
(F2.0
L76500L
tp1542
sL14912L
(F8.0
L14957L
tp1543
sL101064L
(F31.02545571150464
L101085L
tp1544
sL68297L
(F85.00880220893937
L68322L
tp1545
sL92875L
(F9.481481481481481
L92909L
tp1546
sL84686L
(F16.359636283854613
L84695L
tp1547
sL74016L
(F2.4597703900539436
L74096L
tp1548
sL43728L
(F1.0
L43778L
tp1549
sL62832L
(F10.160374021947142
L62837L
tp1550
sL51923L
(F2.0
L51939L
tp1551
sL76500L
(F4.0
L76504L
tp1552
sL37326L
(F1.0
L37344L
tp1553
sL27769L
(F2.2857142857142856
L27776L
tp1554
sL76504L
(F1.0
L76517L
tp1555
sL32752L
(F1.0
L32800L
tp1556
sL18096L
(F1.0
L18101L
tp1557
sL27356L
(F10.518577963245326
L27372L
tp1558
sL101085L
(F62.05091142300928
L101091L
tp1559
sL90576L
(F3.2
L90579L
tp1560
sL68322L
(F170.01760441787874
L68327L
tp1561
sL51939L
(F4.0
L51948L
tp1562
sL76517L
(F2.0
L76524L
tp1563
sL68327L
(F6.158514629487024
L68362L
tp1564
sL60136L
(F4.0
L60151L
tp1565
sL101100L
(F62.05091142300928
L101119L
tp1566
sL92909L
(F7.5851851851851855
L92930L
tp1567
sL51952L
(F1.3333333333333333
L51973L
tp1568
sL55080L
(F1.6
L55103L
tp1569
sL76533L
(F2.0
L76535L
tp1570
sL76535L
(F2.0
L76537L
tp1571
sL19195L
(F4.0
L19200L
tp1572
sL59178L
(F4.0
L59180L
tp1573
sL60159L
(F4.0
L60183L
tp1574
sL76544L
(F1.0
L76560L
tp1575
sL93312L
(F2.0
L93326L
tp1576
sL92930L
(F15.170370370370371
L92939L
tp1577
sL68432L
(F1.0
L68512L
tp1578
sL27372L
(F30.703209182478332
L27411L
tp1579
sL84742L
(F16.0
L84770L
tp1580
sL43783L
(F1.0
L43797L
tp1581
sL35592L
(F2.0
L35623L
tp1582
sL89021L
(F4.499432222852853
L89047L
tp1583
sL68362L
(F63.75660165670453
L68386L
tp1584
sL76560L
(F1.0
L76566L
tp1585
sL61912L
(F2.5400935054867855
L61929L
tp1586
sL27411L
(F2.4615384615384617
L27430L
tp1587
sL101141L
(F31.02545571150464
L101147L
tp1588
sL76566L
(F2.0
L76583L
tp1589
sL51993L
(F1.6842105263157894
L52000L
tp1590
sL50832L
(F1.0
L50943L
tp1591
sL101147L
(F0.3793950417659575
L101152L
tp1592
sL52000L
(F1.6842105263157894
L52005L
tp1593
sL75568L
(F1.3333333333333333
L75573L
tp1594
sL68386L
(F127.51320331340906
L68432L
tp1595
sL19237L
(F0.6153846153846154
L19274L
tp1596
sL27430L
(F0.7398843930635838
L27442L
tp1597
sL76583L
(F4.0
L76592L
tp1598
sL84776L
(F2.2857142857142856
L84783L
tp1599
sL90588L
(F3.2
L90600L
tp1600
sL43819L
(F1.6
L43828L
tp1601
sL67315L
(F9.171516871059415
L67358L
tp1602
sL52120L
(F4.0
L52126L
tp1603
sL84783L
(F4.571428571428571
L84786L
tp1604
sL60208L
(F5.333333333333333
L60224L
tp1605
sL84786L
(F2.2857142857142856
L84791L
tp1606
sL43828L
(F3.2
L43847L
tp1607
sL84791L
(F4.571428571428571
L84794L
tp1608
sL84794L
(F2.2857142857142856
L84804L
tp1609
sL76605L
(F1.0
L76614L
tp1610
sL95024L
(F25.522073868087702
L95045L
tp1611
sL60224L
(F21.333333333333332
L60238L
tp1612
sL82400L
(F2.0
L82417L
tp1613
sL84804L
(F1.1166848418756816
L84813L
tp1614
sL76614L
(F1.0
L76622L
tp1615
sL43847L
(F1.28
L43871L
tp1616
sL93000L
(F18.962962962962962
L93026L
tp1617
sL19274L
(F0.5
L19281L
tp1618
sL27468L
(F2.0
L27470L
tp1619
sL84813L
(F2.2333696837513632
L84850L
tp1620
sL76622L
(F2.0
L76624L
tp1621
sL60240L
(F1.0
L60310L
tp1622
sL68750L
(F32.0
L68760L
tp1623
sL101207L
(F4.0
L101212L
tp1624
sL19288L
(F8.0
L19300L
tp1625
sL58176L
(F1.6
L58185L
tp1626
sL44175L
(F1.3333333333333333
L44186L
tp1627
sL101212L
(F8.0
L101246L
tp1628
sL43871L
(F2.56
L43876L
tp1629
sL76640L
(F1.0
L76679L
tp1630
sL27491L
(F4.0
L27501L
tp1631
sL43876L
(F1.28
L43907L
tp1632
sL35688L
(F2.0237154150197627
L35697L
tp1633
sL52076L
(F2.0
L52085L
tp1634
sL27501L
(F2.0
L27506L
tp1635
sL56368L
(F2.0
L56382L
tp1636
sL21848L
(F8.0
L21853L
tp1637
sL90600L
(F6.4
L90630L
tp1638
sL84850L
(F4.4667393675027265
L84869L
tp1639
sL19603L
(F6.4
L19608L
tp1640
sL52085L
(F4.0
L52087L
tp1641
sL61929L
(F5.080187010973571
L61936L
tp1642
sL35704L
(F1.005893909626719
L35772L
tp1643
sL99936L
(F1.0524887779531114
L99953L
tp1644
sL19323L
(F5.333333333333333
L19340L
tp1645
sL93053L
(F42.666666666666664
L93062L
tp1646
sL101246L
(F3.2
L101254L
tp1647
sL27520L
(F1.0
L27572L
tp1648
sL83776L
(F1.3333333333333333
L83784L
tp1649
sL43907L
(F2.56
L43918L
tp1650
sL84869L
(F8.933478735005453
L84873L
tp1651
sL2241552L
(F1.0
L2241560L
tp1652
sL76679L
(F2.0
L76688L
tp1653
sL52104L
(F1.0
L52114L
tp1654
sL84873L
(F17.866957470010906
L84887L
tp1655
sL46744L
(F1.0
L46768L
tp1656
sL15568L
(F5.565217391304348
L15580L
tp1657
sL101262L
(F0.9846153846153847
L101269L
tp1658
sL43920L
(F0.8
L43927L
tp1659
sL68760L
(F64.0
L68769L
tp1660
sL52114L
(F2.0
L52120L
tp1661
sL40288L
(F1.0
L40297L
tp1662
sL76694L
(F2.0
L76708L
tp1663
sL84887L
(F4.4667393675027265
L84899L
tp1664
sL101272L
(F2.0
L101277L
tp1665
sL54928L
(F12.487804878048781
L54933L
tp1666
sL43933L
(F3.2
L43940L
tp1667
sL52126L
(F8.0
L52144L
tp1668
sL71493L
(F1.0158730158730158
L71568L
tp1669
sL82752L
(F3.2
L82784L
tp1670
sL61936L
(F0.9169857884063268
L61949L
tp1671
sL84899L
(F0.7790775083214455
L84910L
tp1672
sL76708L
(F4.0
L76712L
tp1673
sL76712L
(F1.0
L76725L
tp1674
sL67399L
(F4.22703818369453
L67412L
tp1675
sL65493L
(F1.9393939393939394
L65510L
tp1676
sL65840L
(F1.4855212902202124
L65845L
tp1677
sL84912L
(F5.333333333333333
L84930L
tp1678
sL30536L
(F1.8285714285714285
L30580L
tp1679
sL68532L
(F1.3403141361256545
L68537L
tp1680
sL76725L
(F2.0
L76732L
tp1681
sL46921L
(F12.487804878048781
L46939L
tp1682
sL19384L
(F2.6666666666666665
L19391L
tp1683
sL68537L
(F0.8448844884488449
L68560L
tp1684
sL64671L
(F2.0
L64704L
tp1685
sL76732L
(F1.0
L76741L
tp1686
sL93117L
(F2.0
L93138L
tp1687
sL43966L
(F12.8
L43996L
tp1688
sL101311L
(F6.4
L101322L
tp1689
sL19392L
(F9.0
L19392L
tp1690
sL52384L
(F1.6
L52440L
tp1691
sL76741L
(F1.0
L76793L
tp1692
sL68769L
(F128.0
L68868L
tp1693
sL60360L
(F0.6666666666666666
L60371L
tp1694
sL52170L
(F2.0
L52177L
tp1695
sL82208L
(F1.0
L82219L
tp1696
sL68560L
(F1.6897689768976898
L68576L
tp1697
sL52177L
(F1.0
L52300L
tp1698
sL84946L
(F4.4667393675027265
L84953L
tp1699
sL60371L
(F1.3333333333333333
L60382L
tp1700
sL84936L
(F4.4667393675027265
L84946L
tp1701
sL93143L
(F8.0
L93156L
tp1702
sL84953L
(F8.933478735005453
L84973L
tp1703
sL35804L
(F2.6982872200263506
L35807L
tp1704
sL92847L
(F9.481481481481481
L92875L
tp1705
sL60382L
(F2.6666666666666665
L60390L
tp1706
sL35807L
(F2.312817617165443
L35816L
tp1707
sL44000L
(F3.2
L44002L
tp1708
sL100176L
(F0.8590604026845637
L100226L
tp1709
sL44002L
(F6.4
L44012L
tp1710
sL70139L
(F2.2857142857142856
L70146L
tp1711
sL93156L
(F2.2857142857142856
L93161L
tp1712
sL60390L
(F5.333333333333333
L60402L
tp1713
sL35816L
(F4.625635234330886
L35820L
tp1714
sL93161L
(F3.3684210526315788
L93170L
tp1715
sL44012L
(F0.4
L44024L
tp1716
sL98576L
(F1.0976959581518047
L98597L
tp1717
sL27632L
(F1.0
L27672L
tp1718
sL93352L
(F4.0
L93369L
tp1719
sL60402L
(F0.9411764705882353
L60425L
tp1720
sL101304L
(F12.8
L101311L
tp1721
sL93175L
(F13.473684210526315
L93180L
tp1722
sL31881L
(F0.2816054947413608
L31893L
tp1723
sL76793L
(F2.0
L76815L
tp1724
sL35834L
(F34.3210264467138
L35840L
tp1725
sL93180L
(F26.94736842105263
L93189L
tp1726
sL15530L
(F3.2
L15533L
tp1727
sL19455L
(F1.3333333333333333
L19472L
tp1728
sL35840L
(F0.5085987458868815
L35853L
tp1729
sL94720L
(F10.082794614553166
L94733L
tp1730
sL15296L
(F1.3333333333333333
L15359L
tp1731
sL93189L
(F53.89473684210526
L93194L
tp1732
sL78337L
(F1.2673267326732673
L78348L
tp1733
sL93194L
(F107.78947368421052
L93196L
tp1734
sL75936L
(F10.666666666666666
L75945L
tp1735
sL85004L
(F2.9778262450018174
L85017L
tp1736
sL35853L
(F2.1450641529196126
L35866L
tp1737
sL76815L
(F1.3333333333333333
L76824L
tp1738
sL44048L
(F6.4
L44055L
tp1739
sL68627L
(F4.0
L68677L
tp1740
sL93205L
(F3.8568738229755177
L93214L
tp1741
sL44055L
(F3.2
L44063L
tp1742
sL76824L
(F0.8
L76891L
tp1743
sL29188L
(F1.3333333333333333
L29200L
tp1744
sL35866L
(F4.290128305839225
L35873L
tp1745
sL19484L
(F1.3333333333333333
L19487L
tp1746
sL83802L
(F17.537061814289537
L83843L
tp1747
sL93214L
(F5.142498430634024
L93219L
tp1748
sL19487L
(F0.8
L19492L
tp1749
sL44064L
(F3.2
L44074L
tp1750
sL35873L
(F8.58025661167845
L35882L
tp1751
sL93219L
(F6.963025924351891
L93264L
tp1752
sL19492L
(F1.6
L19503L
tp1753
sL60454L
(F0.7619047619047619
L60459L
tp1754
sL44074L
(F6.4
L44082L
tp1755
sL60459L
(F0.6666666666666666
L60467L
tp1756
sL85036L
(F9.142857142857142
L85040L
tp1757
sL27826L
(F1.7777777777777777
L27836L
tp1758
sL19503L
(F1.1531531531531531
L19520L
tp1759
sL85040L
(F18.285714285714285
L85063L
tp1760
sL66056L
(F1.3013308975740037
L66066L
tp1761
sL44082L
(F2.56
L44087L
tp1762
sL60467L
(F0.5189737092176117
L60480L
tp1763
sL44593L
(F4.0
L44602L
tp1764
sL75392L
(F5.333333333333333
L75400L
tp1765
sL103216L
(F1.5839133797370457
L103232L
tp1766
sL44096L
(F1.0
L44140L
tp1767
sL75616L
(F1.0
L75623L
tp1768
sL68677L
(F8.0
L68681L
tp1769
sL27719L
(F2.0
L27736L
tp1770
sL68681L
(F16.0
L68690L
tp1771
sL86304L
(F2.0
L86310L
tp1772
sL85072L
(F7.314285714285714
L85091L
tp1773
sL36024L
(F16.0
L36039L
tp1774
sL68690L
(F16.0
L68706L
tp1775
sL51043L
(F4.830188679245283
L51053L
tp1776
sL70976L
(F1.003921568627451
L71007L
tp1777
sL60503L
(F0.7310043278454469
L60521L
tp1778
sL27736L
(F1.0
L27744L
tp1779
sL23738L
(F47.35260115606936
L23759L
tp1780
sL101168L
(F1.0
L101183L
tp1781
sL59237L
(F0.8888888888888888
L59259L
tp1782
sL27744L
(F1.1428571428571428
L27747L
tp1783
sL41488L
(F0.8
L41497L
tp1784
sL68706L
(F32.0
L68712L
tp1785
sL27747L
(F0.5714285714285714
L27755L
tp1786
sL97216L
(F0.3793950417659575
L97231L
tp1787
sL86032L
(F1.0
L86056L
tp1788
sL93287L
(F0.7326714962883463
L93306L
tp1789
sL68712L
(F3.5555555555555554
L68730L
tp1790
sL27755L
(F0.5714285714285714
L27764L
tp1791
sL44140L
(F0.5
L44155L
tp1792
sL74258L
(F1.7995195622430324
L74268L
tp1793
sL102672L
(F1.4445424087462528
L102686L
tp1794
sL60528L
(F3.0476190476190474
L60544L
tp1795
sL14184L
(F1.3333333333333333
L14196L
tp1796
sL30112L
(F26.666666666666664
L30120L
tp1797
sL27764L
(F1.1428571428571428
L27769L
tp1798
sL35958L
(F0.5059444770404224
L35963L
tp1799
sL19577L
(F3.2
L19603L
tp1800
sL85114L
(F2.585858585858586
L85125L
tp1801
sL44155L
(F0.6666666666666666
L44175L
tp1802
sL56845L
(F0.9624060150375939
L56863L
tp1803
sL35968L
(F1.0
L35985L
tp1804
sL72896L
(F1.0551262235960845
L72909L
tp1805
sL96107L
(F1.445097032877666
L96168L
tp1806
sL85125L
(F5.171717171717172
L85131L
tp1807
sL101569L
(F5.333333333333333
L101580L
tp1808
sL76937L
(F2.0
L76967L
tp1809
sL52362L
(F2.0
L52377L
tp1810
sL85131L
(F10.343434343434344
L85133L
tp1811
sL85133L
(F1.4776334776334776
L85141L
tp1812
sL93326L
(F2.6666666666666665
L93339L
tp1813
sL67437L
(F10.448979591836734
L67471L
tp1814
sL35985L
(F1.0
L36000L
tp1815
sL101522L
(F2.6666666666666665
L101544L
tp1816
sL27795L
(F2.1333333333333333
L27821L
tp1817
sL55989L
(F1.6
L56006L
tp1818
sL85144L
(F40.899090709636525
L85156L
tp1819
sL44186L
(F2.6666666666666665
L44191L
tp1820
sL93339L
(F1.6
L93345L
tp1821
sL44191L
(F5.333333333333333
L44202L
tp1822
sL60576L
(F1.5058823529411764
L60633L
tp1823
sL75632L
(F1.0
L75652L
tp1824
sL14565L
(F2.0
L14584L
tp1825
sL85156L
(F81.79818141927305
L85165L
tp1826
sL31942L
(F6.368932038834951
L31952L
tp1827
sL36006L
(F4.0
L36018L
tp1828
sL101424L
(F1.0
L101449L
tp1829
sL101544L
(F5.333333333333333
L101555L
tp1830
sL44202L
(F10.666666666666666
L44207L
tp1831
sL36039L
(F32.0
L36045L
tp1832
sL27821L
(F0.8888888888888888
L27826L
tp1833
sL44207L
(F21.333333333333332
L44212L
tp1834
sL76976L
(F1.0
L76999L
tp1835
sL19633L
(F3.0476190476190474
L19641L
tp1836
sL36018L
(F8.0
L36024L
tp1837
sL101555L
(F2.6666666666666665
L101569L
tp1838
sL44212L
(F42.666666666666664
L44216L
tp1839
sL44216L
(F21.333333333333332
L44223L
tp1840
sL93369L
(F8.0
L93375L
tp1841
sL41503L
(F2.6666666666666665
L41512L
tp1842
sL27836L
(F0.8888888888888888
L27844L
tp1843
sL32024L
(F82.0
L32046L
tp1844
sL85183L
(F654.3854513541844
L85187L
tp1845
sL93376L
(F16.0
L93386L
tp1846
sL78368L
(F0.6259168704156479
L78385L
tp1847
sL85187L
(F218.12848378472816
L85217L
tp1848
sL27844L
(F0.9411764705882353
L27849L
tp1849
sL76999L
(F2.0
L77004L
tp1850
sL37480L
(F32.0
L37514L
tp1851
sL93386L
(F21.333333333333332
L93397L
tp1852
sL101580L
(F2.6666666666666665
L101613L
tp1853
sL36045L
(F64.0
L36060L
tp1854
sL27856L
(F1.0
L27890L
tp1855
sL29024L
(F1.0
L29031L
tp1856
sL77011L
(F1.0
L77016L
tp1857
sL19669L
(F1.8028169014084507
L19705L
tp1858
sL77016L
(F2.0
L77028L
tp1859
sL60633L
(F3.011764705882353
L60642L
tp1860
sL36060L
(F128.0
L36079L
tp1861
sL44256L
(F1.3333333333333333
L44267L
tp1862
sL31952L
(F12.737864077669903
L31962L
tp1863
sL60642L
(F6.023529411764706
L60646L
tp1864
sL77028L
(F4.0
L77037L
tp1865
sL60646L
(F12.047058823529412
L60688L
tp1866
sL28752L
(F1.0
L28768L
tp1867
sL52457L
(F1.6
L52523L
tp1868
sL44267L
(F2.6666666666666665
L44278L
tp1869
sL33935L
(F1.7504273504273504
L33952L
tp1870
sL77037L
(F1.6
L77039L
tp1871
sL36079L
(F256.0
L36080L
tp1872
sL93424L
(F13.926051848703782
L93441L
tp1873
sL66088L
(F8.0
L66109L
tp1874
sL27890L
(F2.0
L27919L
tp1875
sL44243L
(F0.8944207882956655
L44256L
tp1876
sL44278L
(F5.333333333333333
L44289L
tp1877
sL101624L
(F2.6666666666666665
L101648L
tp1878
sL19705L
(F4.129032258064516
L19717L
tp1879
sL93397L
(F12.8
L93410L
tp1880
sL77056L
(F4.0
L77067L
tp1881
sL44289L
(F7.111111111111111
L44303L
tp1882
sL68868L
(F256.0
L68881L
tp1883
sL85256L
(F9.142857142857142
L85264L
tp1884
sL72944L
(F0.8258897066236516
L72957L
tp1885
sL27919L
(F1.0
L27928L
tp1886
sL101648L
(F0.8
L101668L
tp1887
sL52440L
(F0.8
L52457L
tp1888
sL16942L
(F2.0
L16954L
tp1889
sL77079L
(F2.0
L77091L
tp1890
sL27928L
(F2.0
L27962L
tp1891
sL93465L
(F64.0
L93471L
tp1892
sL31962L
(F25.475728155339805
L31972L
tp1893
sL93472L
(F1.0
L93520L
tp1894
sL44321L
(F1.3027989821882953
L44332L
tp1895
sL68899L
(F512.0
L68944L
tp1896
sL101668L
(F1.6
L101680L
tp1897
sL97768L
(F0.4519973515780181
L97781L
tp1898
sL60712L
(F12.047058823529412
L60729L
tp1899
sL52523L
(F0.8888888888888888
L52534L
tp1900
sL19756L
(F2.0
L19773L
tp1901
sL85294L
(F65.43854513541845
L85305L
tp1902
sL44335L
(F0.9343065693430657
L44340L
tp1903
sL77104L
(F1.6
L77113L
tp1904
sL44340L
(F1.8686131386861313
L44354L
tp1905
sL93088L
(F1.0
L93117L
tp1906
sL60729L
(F24.094117647058823
L60746L
tp1907
sL27962L
(F1.0
L27969L
tp1908
sL101692L
(F4.0
L101750L
tp1909
sL19773L
(F2.0
L19811L
tp1910
sL98869L
(F2.2880703020563047
L98883L
tp1911
sL52544L
(F1.0
L52555L
tp1912
sL27969L
(F2.0
L27976L
tp1913
sL44354L
(F1.0882040382571732
L44376L
tp1914
sL77123L
(F2.0
L77126L
tp1915
sL77126L
(F8.0
L77128L
tp1916
sL85217L
(F53.83068994850664
L85253L
tp1917
sL27976L
(F4.0
L27986L
tp1918
sL30604L
(F2.0
L30641L
tp1919
sL52555L
(F0.6666666666666666
L52563L
tp1920
sL93410L
(F25.6
L93415L
tp1921
sL2241840L
(F1.0
L2241848L
tp1922
sL93520L
(F2.0
L93548L
tp1923
sL27986L
(F2.6666666666666665
L27990L
tp1924
sL52563L
(F1.3333333333333333
L52567L
tp1925
sL85333L
(F13.63303023654551
L85383L
tp1926
sL27990L
(F2.2857142857142856
L27997L
tp1927
sL52567L
(F2.6666666666666665
L52576L
tp1928
sL44376L
(F0.6851789896286383
L44390L
tp1929
sL82490L
(F4.0
L82500L
tp1930
sL36192L
(F4.0
L36204L
tp1931
sL59280L
(F3.0843373493975905
L59297L
tp1932
sL19811L
(F2.0
L19845L
tp1933
sL44032L
(F2.56
L44042L
tp1934
sL60775L
(F13.721943048576215
L60819L
tp1935
sL52586L
(F0.4507042253521127
L52591L
tp1936
sL36204L
(F8.0
L36210L
tp1937
sL52591L
(F0.27467811158798283
L52597L
tp1938
sL68976L
(F128.0
L68984L
tp1939
sL36210L
(F16.0
L36226L
tp1940
sL38803L
(F8.0
L38809L
tp1941
sL52600L
(F2.6666666666666665
L52609L
tp1942
sL15594L
(F5.565217391304348
L15612L
tp1943
sL100226L
(F2.1335664187852843
L100240L
tp1944
sL22421L
(F47.35260115606936
L22442L
tp1945
sL101760L
(F5.333333333333333
L101778L
tp1946
sL52609L
(F1.4545454545454546
L52621L
tp1947
sL36226L
(F32.0
L36232L
tp1948
sL77187L
(F2.0
L77192L
tp1949
sL51094L
(F2.2857142857142856
L51113L
tp1950
sL85383L
(F6.816515118272755
L85398L
tp1951
sL36232L
(F64.0
L36248L
tp1952
sL77197L
(F2.0
L77209L
tp1953
sL101613L
(F5.333333333333333
L101624L
tp1954
sL28048L
(F2.0
L28083L
tp1955
sL93585L
(F8.0
L93594L
tp1956
sL52626L
(F5.818181818181818
L52632L
tp1957
sL60819L
(F3.4304857621440537
L60834L
tp1958
sL72403L
(F10.995371412598999
L72408L
tp1959
sL101784L
(F5.333333333333333
L101802L
tp1960
sL77209L
(F1.3333333333333333
L77214L
tp1961
sL93594L
(F16.0
L93614L
tp1962
sL77039L
(F0.8888888888888888
L77047L
tp1963
sL77214L
(F1.1428571428571428
L77220L
tp1964
sL85408L
(F1.7239057239057238
L85415L
tp1965
sL36080L
(F0.847682119205298
L36113L
tp1966
sL60834L
(F6.860971524288107
L60844L
tp1967
sL77224L
(F1.7777777777777777
L77232L
tp1968
sL52649L
(F1.1428571428571428
L52657L
tp1969
sL36267L
(F256.0
L36272L
tp1970
sL93614L
(F32.0
L93623L
tp1971
sL85424L
(F8.933478735005453
L85437L
tp1972
sL52657L
(F1.0666666666666667
L52665L
tp1973
sL93623L
(F64.0
L93652L
tp1974
sL28088L
(F5.333333333333333
L28111L
tp1975
sL52665L
(F2.1333333333333333
L52670L
tp1976
sL77243L
(F1.1851851851851851
L77250L
tp1977
sL19900L
(F2.0
L19958L
tp1978
sL85437L
(F17.866957470010906
L85445L
tp1979
sL52670L
(F4.266666666666667
L52678L
tp1980
sL44479L
(F7.474452554744525
L44486L
tp1981
sL69056L
(F4.0
L69069L
tp1982
sL101826L
(F1.6
L101831L
tp1983
sL85445L
(F35.73391494002181
L85454L
tp1984
sL36294L
(F73.14285714285714
L36345L
tp1985
sL59297L
(F2.0562248995983934
L59300L
tp1986
sL60872L
(F24.094117647058823
L60891L
tp1987
sL20576L
(F3.6441281138790034
L20580L
tp1988
sL55765L
(F2.0
L55774L
tp1989
sL40504L
(F0.32323232323232326
L40509L
tp1990
sL59584L
(F4.934939759036145
L59595L
tp1991
sL69069L
(F4.0
L69091L
tp1992
sL85454L
(F71.46782988004362
L85459L
tp1993
sL52687L
(F2.909090909090909
L52689L
tp1994
sL28112L
(F1.0
L28132L
tp1995
sL86784L
(F1.0
L86789L
tp1996
sL85459L
(F142.93565976008725
L85466L
tp1997
sL93652L
(F32.0
L93681L
tp1998
sL98894L
(F1.8304562416450436
L98938L
tp1999
sL52696L
(F10.666666666666666
L52702L
tp2000
sL59300L
(F1.2337349397590363
L59332L
tp2001
sL85466L
(F285.8713195201745
L85492L
tp2002
sL42672L
(F16.0
L42685L
tp2003
sL62272L
(F1.8823529411764706
L62281L
tp2004
sL52702L
(F21.333333333333332
L52708L
tp2005
sL77280L
(F1.0
L77289L
tp2006
sL33360L
(F1.0
L33375L
tp2007
sL69091L
(F8.0
L69134L
tp2008
sL28132L
(F2.0
L28138L
tp2009
sL98320L
(F1.6590632676994692
L98336L
tp2010
sL52712L
(F5.333333333333333
L52729L
tp2011
sL77289L
(F2.0
L77292L
tp2012
sL28138L
(F4.0
L28146L
tp2013
sL32048L
(F82.0
L32060L
tp2014
sL77292L
(F1.0
L77300L
tp2015
sL14248L
(F1.1428571428571428
L14259L
tp2016
sL28146L
(F8.0
L28155L
tp2017
sL29267L
(F2.0
L29289L
tp2018
sL77300L
(F2.0
L77305L
tp2019
sL101878L
(F2.0
L101928L
tp2020
sL93688L
(F2.0
L93703L
tp2021
sL77305L
(F4.0
L77322L
tp2022
sL28155L
(F16.0
L28165L
tp2023
sL44541L
(F0.8944207882956655
L44546L
tp2024
sL19968L
(F4.0
L19980L
tp2025
sL32000L
(F82.0
L32017L
tp2026
sL51948L
(F8.0
L51952L
tp2027
sL93703L
(F2.0
L93759L
tp2028
sL77322L
(F8.0
L77328L
tp2029
sL30944L
(F82.0
L30961L
tp2030
sL40559L
(F0.3256997455470738
L40596L
tp2031
sL44560L
(F0.3565459610027855
L44560L
tp2032
sL58768L
(F6.918918918918919
L58771L
tp2033
sL77333L
(F3.2
L77354L
tp2034
sL78912L
(F42.666666666666664
L78970L
tp2035
sL36376L
(F16.0
L36395L
tp2036
sL52762L
(F2.0
L52771L
tp2037
sL21082L
(F0.5714285714285714
L21099L
tp2038
sL28190L
(F16.0
L28205L
tp2039
sL40784L
(F25.6
L40798L
tp2040
sL26544L
(F94.70520231213872
L26583L
tp2041
sL52771L
(F1.0
L52780L
tp2042
sL38833L
(F128.0
L38853L
tp2043
sL101928L
(F4.0
L101942L
tp2044
sL44586L
(F2.0
L44593L
tp2045
sL36395L
(F32.0
L36408L
tp2046
sL28205L
(F8.0
L28242L
tp2047
sL86320L
(F1.0
L86320L
tp2048
sL52784L
(F1.0
L52805L
tp2049
sL20017L
(F8.0
L20019L
tp2050
sL85555L
(F381.1617593602326
L85568L
tp2051
sL101942L
(F1.0
L101954L
tp2052
sL77367L
(F1.3333333333333333
L77371L
tp2053
sL20024L
(F4.0
L20051L
tp2054
sL44602L
(F0.8888888888888888
L44604L
tp2055
sL44604L
(F0.8
L44627L
tp2056
sL93759L
(F1.6
L93783L
tp2057
sL77376L
(F3.2
L77378L
tp2058
sL49760L
(F3.2
L49769L
tp2059
sL77378L
(F2.0
L77381L
tp2060
sL97232L
(F4.0
L97291L
tp2061
sL52805L
(F2.0
L52807L
tp2062
sL101960L
(F4.0
L101972L
tp2063
sL99960L
(F26.545012283191507
L99992L
tp2064
sL23647L
(F94.70520231213872
L23679L
tp2065
sL36427L
(F128.0
L36446L
tp2066
sL52816L
(F3.764705882352941
L52829L
tp2067
sL30648L
(F82.0
L30660L
tp2068
sL28242L
(F16.0
L28261L
tp2069
sL44627L
(F1.6
L44640L
tp2070
sL61013L
(F96.37647058823529
L61018L
tp2071
sL69136L
(F32.0
L69149L
tp2072
sL93783L
(F2.3703703703703702
L93796L
tp2073
sL20056L
(F4.0
L20068L
tp2074
sL44303L
(F1.7534246575342465
L44307L
tp2075
sL52829L
(F2.5098039215686274
L52832L
tp2076
sL36446L
(F256.0
L36451L
tp2077
sL44640L
(F0.3076923076923077
L44652L
tp2078
sL19728L
(F1.0
L19756L
tp2079
sL93796L
(F2.1069958847736627
L93807L
tp2080
sL28261L
(F32.0
L28271L
tp2081
sL102416L
(F1.2307692307692308
L102429L
tp2082
sL36113L
(F1.695364238410596
L36161L
tp2083
sL36456L
(F16.0
L36475L
tp2084
sL91232L
(F1.0
L91246L
tp2085
sL44652L
(F0.6153846153846154
L44659L
tp2086
sL28271L
(F64.0
L28276L
tp2087
sL62056L
(F7.016326749103367
L62068L
tp2088
sL77426L
(F1.0
L77434L
tp2089
sL44659L
(F0.7619047619047619
L44672L
tp2090
sL52852L
(F0.64
L52860L
tp2091
sL88951L
(F1.2853435526164128
L88969L
tp2092
sL28280L
(F4.0
L28285L
tp2093
sL55374L
(F2.0
L55381L
tp2094
sL77434L
(F2.0
L77439L
tp2095
sL36475L
(F32.0
L36488L
tp2096
sL52860L
(F1.3333333333333333
L52871L
tp2097
sL28285L
(F8.0
L28295L
tp2098
sL77440L
(F4.0
L77443L
tp2099
sL42944L
(F3.5555555555555554
L42950L
tp2100
sL77443L
(F1.0
L77453L
tp2101
sL52871L
(F2.6666666666666665
L52879L
tp2102
sL36488L
(F64.0
L36507L
tp2103
sL102025L
(F0.6666666666666666
L102040L
tp2104
sL44682L
(F3.0476190476190474
L44726L
tp2105
sL35040L
(F1.6
L35060L
tp2106
sL52879L
(F5.333333333333333
L52886L
tp2107
sL85648L
(F8.933478735005453
L85658L
tp2108
sL44312L
(F1.8686131386861313
L44321L
tp2109
sL62864L
(F2.5000381475547417
L62872L
tp2110
sL93845L
(F3.9661099007504235
L93869L
tp2111
sL52886L
(F0.9411764705882353
L52890L
tp2112
sL102040L
(F1.3333333333333333
L102053L
tp2113
sL61081L
(F1.2311391644123835
L61084L
tp2114
sL52890L
(F1.8823529411764706
L52898L
tp2115
sL36507L
(F128.0
L36526L
tp2116
sL61084L
(F0.7386834986474301
L61119L
tp2117
sL85664L
(F65.43854513541845
L85668L
tp2118
sL41584L
(F1.5238095238095237
L41647L
tp2119
sL52898L
(F3.764705882352941
L52914L
tp2120
sL48411L
(F1.0
L48449L
tp2121
sL77476L
(F0.7272727272727273
L77494L
tp2122
sL42950L
(F7.111111111111111
L42965L
tp2123
sL72561L
(F6.320987654320987
L72580L
tp2124
sL93869L
(F1.375997312505249
L93883L
tp2125
sL36526L
(F256.0
L36531L
tp2126
sL56545L
(F2.0
L56550L
tp2127
sL85680L
(F71.46782988004362
L85702L
tp2128
sL20145L
(F2.0
L20161L
tp2129
sL52914L
(F7.529411764705882
L52923L
tp2130
sL102067L
(F5.333333333333333
L102114L
tp2131
sL77494L
(F2.0
L77498L
tp2132
sL36536L
(F64.0
L36555L
tp2133
sL93883L
(F1.375997312505249
L93908L
tp2134
sL48408L
(F2.0
L48411L
tp2135
sL61119L
(F1.4773669972948602
L61124L
tp2136
sL52928L
(F0.7804878048780488
L52935L
tp2137
sL85280L
(F32.719272567709226
L85294L
tp2138
sL101328L
(F1.0
L101369L
tp2139
sL44741L
(F1.2307692307692308
L44743L
tp2140
sL65048L
(F2.0
L65057L
tp2141
sL90144L
(F7.211267605633803
L90152L
tp2142
sL28360L
(F16.0
L28401L
tp2143
sL77513L
(F2.0
L77520L
tp2144
sL28176L
(F8.0
L28190L
tp2145
sL36555L
(F128.0
L36574L
tp2146
sL20173L
(F1.6363636363636362
L20178L
tp2147
sL96205L
(F0.9124108176746498
L96286L
tp2148
sL52944L
(F7.529411764705882
L52957L
tp2149
sL29304L
(F1.4545454545454546
L29325L
tp2150
sL77091L
(F4.0
L77099L
tp2151
sL93908L
(F1.223108722226888
L93921L
tp2152
sL44757L
(F0.9411764705882353
L44768L
tp2153
sL20184L
(F18.0
L20194L
tp2154
sL79568L
(F12.8
L79598L
tp2155
sL93548L
(F4.0
L93585L
tp2156
sL61149L
(F1.8467087466185752
L61167L
tp2157
sL36574L
(F256.0
L36579L
tp2158
sL85728L
(F130.8770902708369
L85733L
tp2159
sL93921L
(F2.446217444453776
L93929L
tp2160
sL102114L
(F1.4545454545454546
L102125L
tp2161
sL85733L
(F261.7541805416738
L85751L
tp2162
sL56320L
(F1.0
L56352L
tp2163
sL36584L
(F64.0
L36599L
tp2164
sL93929L
(F0.8848862094340514
L93936L
tp2165
sL77549L
(F1.0
L77553L
tp2166
sL32560L
(F1.0
L32567L
tp2167
sL61167L
(F3.6934174932371504
L61173L
tp2168
sL93936L
(F1.7697724188681028
L93948L
tp2169
sL44785L
(F1.2307692307692308
L44799L
tp2170
sL52980L
(F2.0
L52989L
tp2171
sL61173L
(F3.6934174932371504
L61177L
tp2172
sL89600L
(F1.0
L89645L
tp2173
sL36599L
(F128.0
L36604L
tp2174
sL28408L
(F32.0
L28442L
tp2175
sL75732L
(F4.0
L75748L
tp2176
sL93948L
(F3.5395448377362055
L93958L
tp2177
sL52989L
(F4.0
L52991L
tp2178
sL44799L
(F2.4615384615384617
L44800L
tp2179
sL52992L
(F1.1428571428571428
L53002L
tp2180
sL49792L
(F1.1851851851851851
L49794L
tp2181
sL77099L
(F8.0
L77104L
tp2182
sL85764L
(F261.7541805416738
L85769L
tp2183
sL93958L
(F0.7975648083777407
L93963L
tp2184
sL74369L
(F0.19479058628877693
L74377L
tp2185
sL20232L
(F18.0
L20242L
tp2186
sL85769L
(F523.5083610833476
L85819L
tp2187
sL53002L
(F2.2857142857142856
L53008L
tp2188
sL93963L
(F1.5951296167554814
L93973L
tp2189
sL73694L
(F0.35726123864492165
L73712L
tp2190
sL61198L
(F1.8467087466185752
L61215L
tp2191
sL69392L
(F1.0
L69392L
tp2192
sL30680L
(F82.0
L30694L
tp2193
sL93973L
(F3.1902592335109627
L93996L
tp2194
sL44822L
(F2.206896551724138
L44824L
tp2195
sL20248L
(F18.0
L20258L
tp2196
sL53017L
(F1.1428571428571428
L53027L
tp2197
sL51456L
(F1.3333333333333333
L51482L
tp2198
sL69405L
(F2.0
L69423L
tp2199
sL44831L
(F1.1636363636363636
L44833L
tp2200
sL36640L
(F8.0
L36652L
tp2201
sL44833L
(F1.0158730158730158
L44838L
tp2202
sL100240L
(F2.844755225047046
L100251L
tp2203
sL53027L
(F1.0666666666666667
L53037L
tp2204
sL61221L
(F48.188235294117646
L61238L
tp2205
sL20264L
(F18.0
L20283L
tp2206
sL83094L
(F2.8603351955307263
L83106L
tp2207
sL93996L
(F6.3805184670219255
L94005L
tp2208
sL69423L
(F4.0
L69435L
tp2209
sL44848L
(F2.206896551724138
L44877L
tp2210
sL53896L
(F1.6
L53905L
tp2211
sL54200L
(F68.26666666666667
L54209L
tp2212
sL94005L
(F5.6715719706861565
L94025L
tp2213
sL61238L
(F2.0
L61252L
tp2214
sL85819L
(F261.7541805416738
L85844L
tp2215
sL63688L
(F0.5039370078740157
L63704L
tp2216
sL20288L
(F18.0
L20307L
tp2217
sL47072L
(F4.923076923076923
L47087L
tp2218
sL102210L
(F2.4615384615384617
L102232L
tp2219
sL87152L
(F2.0
L87170L
tp2220
sL61252L
(F12.19047619047619
L61270L
tp2221
sL2241584L
(F1.0
L2241592L
tp2222
sL94025L
(F5.041397307276583
L94051L
tp2223
sL53067L
(F2.782608695652174
L53077L
tp2224
sL60688L
(F19.275294117647057
L60709L
tp2225
sL69456L
(F4.0
L69466L
tp2226
sL85844L
(F654.3854513541844
L85849L
tp2227
sL53077L
(F1.855072463768116
L53080L
tp2228
sL77328L
(F1.6
L77333L
tp2229
sL77113L
(F3.2
L77121L
tp2230
sL53080L
(F0.6956521739130435
L53085L
tp2231
sL85849L
(F1308.7709027083688
L85899L
tp2232
sL44752L
(F1.8823529411764706
L44757L
tp2233
sL54960L
(F1.0
L54975L
tp2234
sL53085L
(F1.391304347826087
L53091L
tp2235
sL28511L
(F1.0
L28549L
tp2236
sL20320L
(F1.0
L20376L
tp2237
sL74384L
(F0.38859794113702456
L74400L
tp2238
sL53091L
(F2.782608695652174
L53097L
tp2239
sL53905L
(F3.2
L53910L
tp2240
sL53097L
(F0.8205128205128205
L53102L
tp2241
sL38048L
(F2.0
L38097L
tp2242
sL53102L
(F1.4545454545454546
L53114L
tp2243
sL77679L
(F2.0
L77692L
tp2244
sL36720L
(F1.0
L36720L
tp2245
sL82239L
(F4.0
L82250L
tp2246
sL44914L
(F4.0
L44928L
tp2247
sL14589L
(F8.0
L14623L
tp2248
sL69496L
(F4.0
L69517L
tp2249
sL21136L
(F0.36363636363636365
L21167L
tp2250
sL77692L
(F4.0
L77709L
tp2251
sL44928L
(F8.0
L44968L
tp2252
sL73024L
(F2.528395061728395
L73046L
tp2253
sL94082L
(F0.6005053316989803
L94087L
tp2254
sL28549L
(F2.0
L28561L
tp2255
sL36161L
(F0.847682119205298
L36184L
tp2256
sL85899L
(F654.3854513541844
L85924L
tp2257
sL62384L
(F7.529411764705882
L62402L
tp2258
sL69517L
(F6.4
L69535L
tp2259
sL84695L
(F0.5090343791907774
L84713L
tp2260
sL83949L
(F17.537061814289537
L83964L
tp2261
sL53136L
(F1.3333333333333333
L53151L
tp2262
sL71056L
(F1.7181208053691275
L71071L
tp2263
sL59872L
(F2.6666666666666665
L59879L
tp2264
sL36758L
(F2.0
L36813L
tp2265
sL28568L
(F2.0
L28581L
tp2266
sL53151L
(F2.6666666666666665
L53156L
tp2267
sL69536L
(F8.0
L69573L
tp2268
sL88048L
(F0.19263509382495414
L88060L
tp2269
sL53156L
(F1.7777777777777777
L53165L
tp2270
sL46779L
(F0.9411764705882353
L46791L
tp2271
sL28584L
(F2.0
L28629L
tp2272
sL94876L
(F32.0
L94930L
tp2273
sL53165L
(F1.3333333333333333
L53174L
tp2274
sL20376L
(F2.0
L20386L
tp2275
sL83552L
(F2.388338192419825
L83564L
tp2276
sL85936L
(F1.0
L86025L
tp2277
sL77128L
(F1.7777777777777777
L77137L
tp2278
sL77750L
(F5.818181818181818
L77755L
tp2279
sL20408L
(F1.3333333333333333
L20419L
tp2280
sL102330L
(F0.5676274944567627
L102356L
tp2281
sL61371L
(F4.0
L61382L
tp2282
sL31504L
(F82.0
L31569L
tp2283
sL53184L
(F2.2857142857142856
L53190L
tp2284
sL17056L
(F1.0
L17064L
tp2285
sL20419L
(F2.6666666666666665
L20429L
tp2286
sL69573L
(F16.0
L69597L
tp2287
sL61382L
(F1.8823529411764706
L61397L
tp2288
sL58017L
(F5.019607843137255
L58026L
tp2289
sL77769L
(F46.54545454545455
L77790L
tp2290
sL45472L
(F2.0
L45479L
tp2291
sL36813L
(F1.0
L36842L
tp2292
sL53200L
(F0.6464646464646465
L53212L
tp2293
sL66211L
(F1.7285043668977078
L66225L
tp2294
sL20437L
(F0.9411764705882353
L20475L
tp2295
sL22521L
(F47.35260115606936
L22533L
tp2296
sL102360L
(F4.571428571428571
L102371L
tp2297
sL94173L
(F1.6554125943987859
L94178L
tp2298
sL77790L
(F93.0909090909091
L77839L
tp2299
sL69600L
(F16.0
L69629L
tp2300
sL85328L
(F6.816515118272755
L85333L
tp2301
sL61410L
(F2.5098039215686274
L61422L
tp2302
sL102371L
(F2.2857142857142856
L102384L
tp2303
sL28645L
(F2.0
L28663L
tp2304
sL94183L
(F0.45203769493740364
L94201L
tp2305
sL77152L
(F1.0
L77187L
tp2306
sL36842L
(F2.0
L36937L
tp2307
sL61424L
(F0.334094616639478
L61431L
tp2308
sL103080L
(F0.7775984812529663
L103103L
tp2309
sL47600L
(F1.426183844011142
L47626L
tp2310
sL28663L
(F4.0
L28676L
tp2311
sL54856L
(F2.6666666666666665
L54881L
tp2312
sL20475L
(F1.8823529411764706
L20485L
tp2313
sL102398L
(F4.571428571428571
L102410L
tp2314
sL94208L
(F2.809327846364883
L94248L
tp2315
sL47104L
(F12.487804878048781
L47118L
tp2316
sL28676L
(F8.0
L28680L
tp2317
sL38913L
(F16.0
L38924L
tp2318
sL28680L
(F1.6
L28692L
tp2319
sL76624L
(F2.0
L76632L
tp2320
sL45069L
(F0.8888888888888888
L45076L
tp2321
sL61454L
(F0.4454594888526373
L61463L
tp2322
sL77840L
(F1.3247089262613196
L77850L
tp2323
sL75152L
(F5.333333333333333
L75158L
tp2324
sL45076L
(F1.7777777777777777
L45087L
tp2325
sL61463L
(F0.942692750287687
L61472L
tp2326
sL77008L
(F8.0
L77011L
tp2327
sL77850L
(F0.7901234567901234
L77868L
tp2328
sL69660L
(F1.0
L69678L
tp2329
sL102429L
(F2.4615384615384617
L102446L
tp2330
sL46400L
(F3.282051282051282
L46409L
tp2331
sL45087L
(F3.5555555555555554
L45094L
tp2332
sL61472L
(F1.5421686746987953
L61477L
tp2333
sL41648L
(F1.0
L41667L
tp2334
sL61477L
(F3.0843373493975905
L61499L
tp2335
sL45094L
(F7.111111111111111
L45099L
tp2336
sL20519L
(F2.56
L20529L
tp2337
sL94248L
(F5.618655692729766
L94258L
tp2338
sL28714L
(F2.2857142857142856
L28730L
tp2339
sL45099L
(F14.222222222222221
L45104L
tp2340
sL80432L
(F1.0
L80432L
tp2341
sL102446L
(F4.923076923076923
L102449L
tp2342
sL69680L
(F1.0
L69685L
tp2343
sL20529L
(F5.12
L20556L
tp2344
sL94258L
(F11.237311385459533
L94286L
tp2345
sL28730L
(F1.4545454545454546
L28741L
tp2346
sL61499L
(F2.0562248995983934
L61508L
tp2347
sL89532L
(F21.333333333333332
L89544L
tp2348
sL69696L
(F1.0
L69714L
tp2349
sL28000L
(F4.0
L28039L
tp2350
sL61508L
(F4.112449799196787
L61522L
tp2351
sL102469L
(F2.8444444444444446
L102512L
tp2352
sL70896L
(F1.28
L70916L
tp2353
sL28744L
(F2.0
L28746L
tp2354
sL36937L
(F4.0
L36976L
tp2355
sL53323L
(F1.0
L53433L
tp2356
sL77900L
(F8.0
L77905L
tp2357
sL58352L
(F11.473389355742297
L58373L
tp2358
sL94286L
(F7.491540923639689
L94302L
tp2359
sL96592L
(F0.3772606245980495
L96605L
tp2360
sL86096L
(F1.0
L86117L
tp2361
sL45137L
(F3.1219512195121952
L45155L
tp2362
sL69714L
(F2.0
L69723L
tp2363
sL20564L
(F20.48
L20571L
tp2364
sL61527L
(F16.449799196787147
L61536L
tp2365
sL74336L
(F0.7771958822740491
L74357L
tp2366
sL77914L
(F4.571428571428571
L77927L
tp2367
sL28768L
(F2.0
L28779L
tp2368
sL51216L
(F1.0
L51221L
tp2369
sL63425L
(F3.5555555555555554
L63484L
tp2370
sL69731L
(F1.0
L69742L
tp2371
sL20580L
(F7.288256227758007
L20583L
tp2372
sL44390L
(F1.3703579792572766
L44424L
tp2373
sL22235L
(F4.697247706422019
L22269L
tp2374
sL77927L
(F9.142857142857142
L77936L
tp2375
sL94314L
(F4.7407407407407405
L94335L
tp2376
sL45163L
(F12.487804878048781
L45168L
tp2377
sL68881L
(F256.0
L68899L
tp2378
sL14354L
(F2.0
L14374L
tp2379
sL61550L
(F43.866131191432395
L61552L
tp2380
sL28783L
(F0.8
L28791L
tp2381
sL45168L
(F0.28942905596382135
L45173L
tp2382
sL54584L
(F12.487804878048781
L54593L
tp2383
sL62880L
(F1.0
L62914L
tp2384
sL20596L
(F2.4294187425860025
L20615L
tp2385
sL61557L
(F0.6697187704381949
L61568L
tp2386
sL28791L
(F1.6
L28797L
tp2387
sL69756L
(F8.0
L69763L
tp2388
sL28797L
(F0.8
L28806L
tp2389
sL61568L
(F1.3394375408763899
L61576L
tp2390
sL45185L
(F0.3859054079517618
L45197L
tp2391
sL15140L
(F4.0
L15166L
tp2392
sL69763L
(F16.0
L69778L
tp2393
sL84976L
(F4.0
L84992L
tp2394
sL76247L
(F2.0
L76251L
tp2395
sL82625L
(F0.6666666666666666
L82630L
tp2396
sL102536L
(F3.324675324675325
L102550L
tp2397
sL64876L
(F16.0
L64880L
tp2398
sL92183L
(F1.4545454545454546
L92198L
tp2399
sL21186L
(F0.6153846153846154
L21193L
tp2400
sL94350L
(F3.6693261666806642
L94366L
tp2401
sL45200L
(F1.7777777777777777
L45209L
tp2402
sL79896L
(F4.0
L79905L
tp2403
sL69778L
(F1.2307692307692308
L69783L
tp2404
sL49859L
(F2.0
L49878L
tp2405
sL61588L
(F0.9434527237130024
L61596L
tp2406
sL102550L
(F6.64935064935065
L102555L
tp2407
sL44332L
(F1.0882040382571732
L44335L
tp2408
sL29329L
(F1.3333333333333333
L29343L
tp2409
sL45209L
(F3.5555555555555554
L45221L
tp2410
sL102555L
(F13.2987012987013
L102560L
tp2411
sL61596L
(F1.8869054474260047
L61608L
tp2412
sL37022L
(F4.0
L37043L
tp2413
sL32390L
(F328.0
L32426L
tp2414
sL28832L
(F1.0
L28868L
tp2415
sL69795L
(F1.103448275862069
L69821L
tp2416
sL45221L
(F7.111111111111111
L45240L
tp2417
sL39968L
(F64.0
L39992L
tp2418
sL61608L
(F3.7738108948520095
L61648L
tp2419
sL20650L
(F1.7917760279965005
L20688L
tp2420
sL29383L
(F2.6666666666666665
L29391L
tp2421
sL102572L
(F6.954159592529711
L102575L
tp2422
sL102575L
(F1.7385398981324278
L102585L
tp2423
sL86192L
(F1.0
L86255L
tp2424
sL103112L
(F1.6623376623376624
L103122L
tp2425
sL21948L
(F0.17772378183711546
L21967L
tp2426
sL67614L
(F13.828034935181662
L67639L
tp2427
sL23056L
(F94.70520231213872
L23095L
tp2428
sL37048L
(F2.6666666666666665
L37054L
tp2429
sL102585L
(F3.4770797962648556
L102592L
tp2430
sL82250L
(F2.0
L82265L
tp2431
sL69821L
(F1.0406504065040652
L69828L
tp2432
sL37054L
(F1.3333333333333333
L37095L
tp2433
sL78016L
(F18.285714285714285
L78026L
tp2434
sL53441L
(F2.0
L53446L
tp2435
sL48256L
(F32.0
L48288L
tp2436
sL90827L
(F2.782608695652174
L90849L
tp2437
sL69828L
(F2.0
L69835L
tp2438
sL84001L
(F1.7493060004270766
L84015L
tp2439
sL94409L
(F16.0
L94427L
tp2440
sL78026L
(F11.636363636363637
L78036L
tp2441
sL69835L
(F4.0
L69842L
tp2442
sL102606L
(F0.9752380952380952
L102626L
tp2443
sL53456L
(F1.0
L53499L
tp2444
sL68984L
(F25.6
L69005L
tp2445
sL50608L
(F2.0
L50613L
tp2446
sL45274L
(F7.111111111111111
L45308L
tp2447
sL94427L
(F32.0
L94472L
tp2448
sL91792L
(F2.0
L91805L
tp2449
sL43045L
(F7.111111111111111
L43056L
tp2450
sL69856L
(F1.0
L69861L
tp2451
sL17104L
(F1.0
L17112L
tp2452
sL102626L
(F0.6501587301587302
L102635L
tp2453
sL69861L
(F2.0
L69877L
tp2454
sL37095L
(F1.6
L37124L
tp2455
sL28904L
(F1.0
L28921L
tp2456
sL102635L
(F1.3003174603174603
L102655L
tp2457
sL86256L
(F1.0
L86266L
tp2458
sL51973L
(F0.8421052631578947
L51993L
tp2459
sL69877L
(F4.0
L69886L
tp2460
sL78071L
(F2.0
L78085L
tp2461
sL28921L
(F2.0
L28941L
tp2462
sL86266L
(F2.0
L86271L
tp2463
sL61691L
(F7.529411764705882
L61711L
tp2464
sL69886L
(F2.0
L69894L
tp2465
sL102655L
(F2.6006349206349206
L102672L
tp2466
sL86272L
(F2.0
L86278L
tp2467
sL56704L
(F3.2
L56710L
tp2468
sL37124L
(F0.8888888888888888
L37140L
tp2469
sL78085L
(F4.0
L78088L
tp2470
sL69894L
(F4.0
L69896L
tp2471
sL20743L
(F3.583552055993001
L20753L
tp2472
sL78088L
(F1.3333333333333333
L78093L
tp2473
sL78093L
(F2.6666666666666665
L78102L
tp2474
sL61711L
(F15.058823529411764
L61730L
tp2475
sL86288L
(F1.0
L86298L
tp2476
sL20753L
(F1.7917760279965005
L20767L
tp2477
sL83344L
(F2.192132726786192
L83384L
tp2478
sL37140L
(F1.7777777777777777
L37152L
tp2479
sL78102L
(F1.3333333333333333
L78133L
tp2480
sL28952L
(F1.3333333333333333
L28955L
tp2481
sL86298L
(F2.0
L86303L
tp2482
sL28955L
(F0.8
L28971L
tp2483
sL80784L
(F20.0
L80850L
tp2484
sL102686L
(F2.8890848174925057
L102697L
tp2485
sL19845L
(F2.0
L19900L
tp2486
sL45344L
(F1.0
L45419L
tp2487
sL30768L
(F82.0
L30782L
tp2488
sL38961L
(F128.0
L38990L
tp2489
sL53544L
(F6.4
L53562L
tp2490
sL102697L
(F1.4445424087462528
L102719L
tp2491
sL28039L
(F8.0
L28041L
tp2492
sL12592L
(F1.0
L12592L
tp2493
sL94513L
(F33.711934156378604
L94518L
tp2494
sL61748L
(F0.151726560370513
L61768L
tp2495
sL78133L
(F2.0
L78138L
tp2496
sL66424L
(F4.585758435529708
L66447L
tp2497
sL78138L
(F4.0
L78144L
tp2498
sL86332L
(F2.0
L86339L
tp2499
sL75813L
(F7.111111111111111
L75820L
tp2500
sL53566L
(F1.7777777777777777
L53586L
tp2501
sL102719L
(F1.1305547888490202
L102732L
tp2502
sL28992L
(F2.0
L29006L
tp2503
sL53984L
(F4.0
L53988L
tp2504
sL56384L
(F1.0
L56426L
tp2505
sL86339L
(F1.0
L86375L
tp2506
sL60432L
(F1.5238095238095237
L60454L
tp2507
sL82657L
(F6.4
L82688L
tp2508
sL61768L
(F0.303453120741026
L61783L
tp2509
sL102732L
(F0.7919566898685229
L102746L
tp2510
sL29006L
(F1.6
L29011L
tp2511
sL52621L
(F2.909090909090909
L52626L
tp2512
sL15696L
(F6.481012658227848
L15726L
tp2513
sL78161L
(F1.0
L78171L
tp2514
sL53586L
(F0.8
L53598L
tp2515
sL69976L
(F8.0
L70025L
tp2516
sL102746L
(F0.8839015968925334
L102757L
tp2517
sL78171L
(F1.0
L78192L
tp2518
sL53598L
(F1.6
L53606L
tp2519
sL61792L
(F8.224899598393574
L61805L
tp2520
sL44432L
(F0.6666666666666666
L44469L
tp2521
sL20488L
(F2.56
L20508L
tp2522
sL20836L
(F0.6756845925437149
L20852L
tp2523
sL102757L
(F1.767803193785067
L102760L
tp2524
sL53606L
(F3.2
L53623L
tp2525
sL86375L
(F2.0
L86429L
tp2526
sL102760L
(F0.9383734249713631
L102778L
tp2527
sL86992L
(F1.0
L87009L
tp2528
sL45419L
(F1.0
L45434L
tp2529
sL61805L
(F16.449799196787147
L61815L
tp2530
sL12656L
(F1.0
L12656L
tp2531
sL53992L
(F2.909090909090909
L54001L
tp2532
sL96168L
(F0.8389296551514466
L96205L
tp2533
sL20852L
(F1.3513691850874299
L20859L
tp2534
sL29046L
(F8.0
L29056L
tp2535
sL61815L
(F0.7465597375375923
L61823L
tp2536
sL102778L
(F1.8767468499427262
L102789L
tp2537
sL59455L
(F3.0843373493975905
L59480L
tp2538
sL61823L
(F1.4931194750751846
L61838L
tp2539
sL20864L
(F4.858837485172005
L20895L
tp2540
sL30784L
(F82.0
L30801L
tp2541
sL45442L
(F1.0
L45458L
tp2542
sL94595L
(F18.962962962962962
L94600L
tp2543
sL82464L
(F1.0
L82482L
tp2544
sL102789L
(F0.9383734249713631
L102802L
tp2545
sL60096L
(F5.333333333333333
L60129L
tp2546
sL29064L
(F3.2
L29070L
tp2547
sL87372L
(F2.0
L87400L
tp2548
sL70800L
(F1.7777777777777777
L70883L
tp2549
sL78220L
(F4.0
L78225L
tp2550
sL61838L
(F2.986238950150369
L61850L
tp2551
sL94608L
(F5.503989250020996
L94639L
tp2552
sL36248L
(F128.0
L36267L
tp2553
sL102802L
(F0.4826204783786968
L102811L
tp2554
sL29075L
(F0.9696969696969697
L29077L
tp2555
sL29080L
(F3.2
L29083L
tp2556
sL79940L
(F8.0
L79953L
tp2557
sL61850L
(F5.972477900300738
L61856L
tp2558
sL102811L
(F0.49115654415732357
L102849L
tp2559
sL37277L
(F4.0
L37293L
tp2560
sL20896L
(F5.333333333333333
L20905L
tp2561
sL17136L
(F1.0
L17143L
tp2562
sL70050L
(F2.0
L70055L
tp2563
sL73115L
(F5.5258010118043845
L73120L
tp2564
sL45479L
(F2.0
L45484L
tp2565
sL36976L
(F2.0
L37022L
tp2566
sL53674L
(F2.0
L53690L
tp2567
sL70060L
(F8.0
L70069L
tp2568
sL86445L
(F2.0
L86451L
tp2569
sL94639L
(F11.007978500041991
L94648L
tp2570
sL20912L
(F3.583552055993001
L20924L
tp2571
sL78259L
(F1.2307692307692308
L78273L
tp2572
sL70069L
(F16.0
L70095L
tp2573
sL70256L
(F2.0
L70282L
tp2574
sL61882L
(F0.6350233763716964
L61905L
tp2575
sL29116L
(F0.8888888888888888
L29118L
tp2576
sL50343L
(F16.0
L50348L
tp2577
sL94656L
(F11.343143941372313
L94670L
tp2578
sL52640L
(F1.3333333333333333
L52649L
tp2579
sL64528L
(F9.02451115395208
L64544L
tp2580
sL53703L
(F2.0
L53711L
tp2581
sL102856L
(F2.852367688022284
L102897L
tp2582
sL94670L
(F22.686287882744626
L94689L
tp2583
sL78287L
(F2.4615384615384617
L78291L
tp2584
sL70096L
(F8.0
L70137L
tp2585
sL61905L
(F1.2700467527433927
L61912L
tp2586
sL78291L
(F0.8648648648648649
L78296L
tp2587
sL22606L
(F47.35260115606936
L22623L
tp2588
sL29142L
(F2.0
L29152L
tp2589
sL86777L
(F2.0
L86784L
tp2590
sL78296L
(F1.7297297297297298
L78304L
tp2591
sL61024L
(F3.011764705882353
L61052L
tp2592
sL39147L
(F102.4
L39168L
tp2593
sL75440L
(F1.0
L75473L
tp2594
sL20957L
(F6.826666666666667
L20964L
tp2595
sL45535L
(F2.0
L45551L
tp2596
sL86496L
(F1.0
L86517L
tp2597
sL94689L
(F45.37257576548925
L94693L
tp2598
sL92080L
(F4.0
L92090L
tp2599
sL20964L
(F1.3513691850874299
L20969L
tp2600
sL94693L
(F15.12419192182975
L94713L
tp2601
sL78313L
(F1.855072463768116
L78320L
tp2602
sL29163L
(F2.0
L29168L
tp2603
sL47344L
(F16.650406504065042
L47356L
tp2604
sL45551L
(F0.4037854889589905
L45571L
tp2605
sL53744L
(F2.0
L53747L
tp2606
sL102897L
(F1.426183844011142
L102916L
tp2607
sL45312L
(F1.1577162238552854
L45338L
tp2608
sL29173L
(F2.0
L29188L
tp2609
sL40252L
(F512.0
L40274L
tp2610
sL102992L
(F0.7801904761904762
L103003L
tp2611
sL70137L
(F16.0
L70139L
tp2612
sL91808L
(F4.0
L91844L
tp2613
sL24158L
(F47.35260115606936
L24184L
tp2614
sL61949L
(F1.0119800195480875
L61959L
tp2615
sL55381L
(F4.0
L55395L
tp2616
sL53760L
(F4.0
L53760L
tp2617
sL54016L
(F1.0
L54045L
tp2618
sL45571L
(F0.807570977917981
L45584L
tp2619
sL102916L
(F2.852367688022284
L102920L
tp2620
sL37632L
(F2.0
L37632L
tp2621
sL102920L
(F0.7111111111111111
L102941L
tp2622
sL99992L
(F1.9273915734929463
L100003L
tp2623
sL78348L
(F0.9110320284697508
L78358L
tp2624
sL70157L
(F8.0
L70194L
tp2625
sL61968L
(F3.566390944710492
L61980L
tp2626
sL59480L
(F6.168674698795181
L59497L
tp2627
sL53781L
(F2.0
L53792L
tp2628
sL78358L
(F1.8220640569395017
L78368L
tp2629
sL69168L
(F64.0
L69189L
tp2630
sL22795L
(F47.35260115606936
L22819L
tp2631
sL21017L
(F2.0
L21038L
tp2632
sL61980L
(F0.8770408436379209
L62009L
tp2633
sL57824L
(F6.4
L57845L
tp2634
sL94750L
(F17.014715912058467
L94766L
tp2635
sL53792L
(F0.6666666666666666
L53814L
tp2636
sL77232L
(F0.8888888888888888
L77241L
tp2637
sL54696L
(F0.398443579766537
L54716L
tp2638
sL45610L
(F4.0
L45620L
tp2639
sL99323L
(F1.1312963921974797
L99348L
tp2640
sL21038L
(F0.8
L21082L
tp2641
sL94768L
(F10.082794614553166
L94782L
tp2642
sL78385L
(F0.9317561419472248
L78406L
tp2643
sL87648L
(F1.0
L87708L
tp2644
sL45620L
(F0.8
L45629L
tp2645
sL53814L
(F1.0
L53859L
tp2646
sL70200L
(F3.2
L70210L
tp2647
sL62009L
(F1.7540816872758418
L62042L
tp2648
sL45629L
(F1.6
L45657L
tp2649
sL94782L
(F13.443726152737556
L94804L
tp2650
sL102976L
(F0.9752380952380952
L102992L
tp2651
sL47200L
(F6.2439024390243905
L47209L
tp2652
sL70210L
(F1.6
L70229L
tp2653
sL98630L
(F3.477481336886718
L98643L
tp2654
sL102449L
(F1.4222222222222223
L102469L
tp2655
sL86598L
(F2.0
L86610L
tp2656
sL46939L
(F24.975609756097562
L46950L
tp2657
sL60752L
(F6.860971524288107
L60775L
tp2658
sL85264L
(F18.285714285714285
L85274L
tp2659
sL78416L
(F1.0
L78455L
tp2660
sL44472L
(F3.7372262773722627
L44479L
tp2661
sL86610L
(F4.0
L86633L
tp2662
sL92259L
(F0.9624060150375939
L92264L
tp2663
sL70229L
(F3.2
L70233L
tp2664
sL77241L
(F1.7777777777777777
L77243L
tp2665
sL94808L
(F4.804042653591843
L94819L
tp2666
sL45657L
(F3.2
L45659L
tp2667
sL62042L
(F3.5081633745516836
L62056L
tp2668
sL45659L
(F6.4
L45664L
tp2669
sL93448L
(F32.0
L93465L
tp2670
sL70240L
(F5.333333333333333
L70252L
tp2671
sL17168L
(F1.0
L17186L
tp2672
sL84992L
(F2.2333696837513632
L85004L
tp2673
sL45671L
(F8.533333333333333
L45692L
tp2674
sL94824L
(F3.2
L94832L
tp2675
sL86633L
(F8.0
L86689L
tp2676
sL12432L
(F1.0
L12432L
tp2677
sL21099L
(F0.4444444444444444
L21136L
tp2678
sL32618L
(F8.0
L32625L
tp2679
sL29928L
(F26.666666666666664
L29936L
tp2680
sL53872L
(F1.0
L53882L
tp2681
sL92264L
(F1.9248120300751879
L92271L
tp2682
sL78455L
(F2.0
L78464L
tp2683
sL62072L
(F5.095220509630897
L62088L
tp2684
sL103033L
(F0.795958025650991
L103042L
tp2685
sL53882L
(F2.0
L53887L
tp2686
sL84720L
(F8.0
L84742L
tp2687
sL53887L
(F4.0
L53896L
tp2688
sL45696L
(F6.4
L45703L
tp2689
sL60864L
(F12.047058823529412
L60872L
tp2690
sL103042L
(F1.591916051301982
L103048L
tp2691
sL45703L
(F12.8
L45710L
tp2692
sL62088L
(F2.5476102548154484
L62097L
tp2693
sL78473L
(F2.0
L78493L
tp2694
sL78992L
(F1.0
L79027L
tp2695
sL61541L
(F21.933065595716197
L61550L
tp2696
sL29325L
(F2.909090909090909
L29329L
tp2697
sL45710L
(F1.0158730158730158
L45730L
tp2698
sL56624L
(F1.0
L56641L
tp2699
sL70288L
(F16.0
L70302L
tp2700
sL62097L
(F5.095220509630897
L62108L
tp2701
sL95632L
(F2.0
L95644L
tp2702
sL45849L
(F2.098360655737705
L45861L
tp2703
sL92271L
(F3.8496240601503757
L92285L
tp2704
sL103068L
(F1.7727764553127028
L103080L
tp2705
sL78493L
(F4.0
L78506L
tp2706
sL29343L
(F2.6666666666666665
L29356L
tp2707
sL53920L
(F2.0
L53950L
tp2708
sL62113L
(F2.0776552828259613
L62138L
tp2709
sL76265L
(F2.6666666666666665
L76285L
tp2710
sL17568L
(F1.7777777777777777
L17575L
tp2711
sL52678L
(F1.4545454545454546
L52687L
tp2712
sL18545L
(F2.0
L18551L
tp2713
sL45736L
(F1.2307692307692308
L45762L
tp2714
sL90908L
(F7.6560747663551405
L90913L
tp2715
sL78506L
(F8.0
L78536L
tp2716
sL29356L
(F5.333333333333333
L29383L
tp2717
sL62237L
(F16.0
L62271L
tp2718
sL21168L
(F0.6153846153846154
L21181L
tp2719
sL77256L
(F2.6666666666666665
L77266L
tp2720
sL86710L
(F8.0
L86735L
tp2721
sL64969L
(F3.2
L64971L
tp2722
sL37560L
(F3.5555555555555554
L37591L
tp2723
sL62138L
(F4.155310565651923
L62156L
tp2724
sL21181L
(F1.2307692307692308
L21186L
tp2725
sL81176L
(F20.0
L81218L
tp2726
sL53952L
(F8.0
L53955L
tp2727
sL44896L
(F2.0
L44914L
tp2728
sL45762L
(F1.103448275862069
L45774L
tp2729
sL53955L
(F1.4545454545454546
L53964L
tp2730
sL72720L
(F2.528395061728395
L72736L
tp2731
sL90913L
(F15.312149532710281
L90915L
tp2732
sL82386L
(F1.3333333333333333
L82397L
tp2733
sL21193L
(F0.3076923076923077
L21207L
tp2734
sL74010L
(F2.6654806116466037
L74016L
tp2735
sL53964L
(F2.909090909090909
L53967L
tp2736
sL45774L
(F2.206896551724138
L45788L
tp2737
sL53967L
(F1.4545454545454546
L53979L
tp2738
sL86736L
(F32.0
L86757L
tp2739
sL103122L
(F1.248780487804878
L103130L
tp2740
sL101808L
(F5.333333333333333
L101826L
tp2741
sL78320L
(F0.6336633663366337
L78337L
tp2742
sL21207L
(F0.6153846153846154
L21238L
tp2743
sL94936L
(F32.0
L94953L
tp2744
sL45788L
(F4.413793103448276
L45793L
tp2745
sL103136L
(F2.2164502164502164
L103145L
tp2746
sL45793L
(F8.827586206896552
L45812L
tp2747
sL86757L
(F1.1428571428571428
L86763L
tp2748
sL78566L
(F1.3333333333333333
L78587L
tp2749
sL70376L
(F2.0
L70386L
tp2750
sL94953L
(F12.8
L94980L
tp2751
sL14544L
(F1.0
L14565L
tp2752
sL30440L
(F12.8
L30457L
tp2753
sL86768L
(F1.0
L86777L
tp2754
sL2241888L
(F1.0
L2241896L
tp2755
sL70386L
(F0.5714285714285714
L70398L
tp2756
sL39038L
(F11.636363636363637
L39075L
tp2757
sL21238L
(F1.2307692307692308
L21244L
tp2758
sL101091L
(F31.02545571150464
L101100L
tp2759
sL45816L
(F1.0491803278688525
L45849L
tp2760
sL103161L
(F8.865800865800866
L103182L
tp2761
sL78587L
(F2.6666666666666665
L78596L
tp2762
sL70398L
(F1.1428571428571428
L70402L
tp2763
sL62208L
(F14.265563778841967
L62217L
tp2764
sL88192L
(F3.5478562148116066
L88200L
tp2765
sL70402L
(F0.5714285714285714
L70411L
tp2766
sL78596L
(F5.333333333333333
L78606L
tp2767
sL86789L
(F2.0
L86794L
tp2768
sL96385L
(F1.417435375170556
L96426L
tp2769
sL2241616L
(F1.0
L2241624L
tp2770
sL21257L
(F1.103448275862069
L21264L
tp2771
sL86794L
(F1.3333333333333333
L86803L
tp2772
sL70411L
(F1.1428571428571428
L70415L
tp2773
sL103182L
(F3.471186440677966
L103192L
tp2774
sL49965L
(F1.0
L49972L
tp2775
sL62224L
(F8.0
L62237L
tp2776
sL86803L
(F2.6666666666666665
L86806L
tp2777
sL37652L
(F1.0
L37672L
tp2778
sL103192L
(F0.9292196007259528
L103206L
tp2779
sL70425L
(F4.571428571428571
L70447L
tp2780
sL21274L
(F0.6881720430107527
L21293L
tp2781
sL54992L
(F1.0
L55005L
tp2782
sL95005L
(F40.33117845821266
L95014L
tp2783
sL86816L
(F4.0
L86822L
tp2784
sL70448L
(F0.6037735849056604
L70460L
tp2785
sL60891L
(F24.094117647058823
L60986L
tp2786
sL86822L
(F2.0
L86824L
tp2787
sL78632L
(F21.333333333333332
L78734L
tp2788
sL90432L
(F1.1906976744186046
L90438L
tp2789
sL71815L
(F3.1604938271604937
L71829L
tp2790
sL21293L
(F0.34408602150537637
L21345L
tp2791
sL70447L
(F9.142857142857142
L70448L
tp2792
sL86832L
(F1.0
L86851L
tp2793
sL30856L
(F82.0
L30873L
tp2794
sL54068L
(F3.2
L54072L
tp2795
sL31456L
(F82.0
L31473L
tp2796
sL45880L
(F2.4615384615384617
L45887L
tp2797
sL54076L
(F4.266666666666667
L54081L
tp2798
sL62271L
(F32.0
L62272L
tp2799
sL103232L
(F3.1678267594740914
L103237L
tp2800
sL54081L
(F8.533333333333333
L54085L
tp2801
sL103003L
(F0.9874638379942141
L103033L
tp2802
sL86851L
(F2.0
L86856L
tp2803
sL54085L
(F0.43243243243243246
L54098L
tp2804
sL45895L
(F0.807570977917981
L45900L
tp2805
sL86856L
(F1.0
L86861L
tp2806
sL62281L
(F3.764705882352941
L62306L
tp2807
sL86861L
(F2.0
L86869L
tp2808
sL95054L
(F64.0
L95074L
tp2809
sL63629L
(F1.5238095238095237
L63634L
tp2810
sL45904L
(F2.0
L45904L
tp2811
sL54072L
(F6.4
L54076L
tp2812
sL54098L
(F0.8
L54111L
tp2813
sL30416L
(F12.8
L30433L
tp2814
sL86869L
(F1.3333333333333333
L86893L
tp2815
sL70486L
(F2.4150943396226414
L70496L
tp2816
sL48720L
(F5.333333333333333
L48733L
tp2817
sL43151L
(F14.222222222222221
L43162L
tp2818
sL22533L
(F94.70520231213872
L22572L
tp2819
sL54111L
(F1.6
L54119L
tp2820
sL70496L
(F1.0940170940170941
L70512L
tp2821
sL21345L
(F0.29357798165137616
L21355L
tp2822
sL62306L
(F7.529411764705882
L62315L
tp2823
sL54176L
(F8.533333333333333
L54185L
tp2824
sL45927L
(F2.0
L45940L
tp2825
sL103272L
(F5.201269841269841
L103307L
tp2826
sL70460L
(F1.2075471698113207
L70486L
tp2827
sL21355L
(F0.5871559633027523
L21371L
tp2828
sL86893L
(F1.1428571428571428
L86898L
tp2829
sL54127L
(F1.1428571428571428
L54144L
tp2830
sL70512L
(F2.1880341880341883
L70524L
tp2831
sL89576L
(F21.333333333333332
L89585L
tp2832
sL86898L
(F2.2857142857142856
L86903L
tp2833
sL45940L
(F4.0
L45948L
tp2834
sL61736L
(F2.0
L61748L
tp2835
sL82080L
(F1.0
L82082L
tp2836
sL25407L
(F47.35260115606936
L25419L
tp2837
sL70524L
(F0.8590604026845637
L70539L
tp2838
sL54144L
(F0.6274509803921569
L54156L
tp2839
sL49984L
(F4.0
L49984L
tp2840
sL21381L
(F2.3486238532110093
L21391L
tp2841
sL100823L
(F4.873289708506841
L100832L
tp2842
sL62346L
(F3.750915750915751
L62349L
tp2843
sL70539L
(F1.7181208053691275
L70552L
tp2844
sL15184L
(F1.0
L15203L
tp2845
sL45965L
(F16.0
L45987L
tp2846
sL78734L
(F42.666666666666664
L78767L
tp2847
sL27584L
(F1.0
L27618L
tp2848
sL37776L
(F2.0
L37778L
tp2849
sL62354L
(F0.5962317021024955
L62375L
tp2850
sL101369L
(F2.0
L101424L
tp2851
sL86933L
(F2.2857142857142856
L86938L
tp2852
sL70552L
(F0.8590604026845637
L70575L
tp2853
sL38168L
(F2.0
L38214L
tp2854
sL47258L
(F4.923076923076923
L47287L
tp2855
sL95045L
(F51.044147736175404
L95054L
tp2856
sL2241440L
(F1.0
L2241448L
tp2857
sL45987L
(F1.9692307692307693
L46003L
tp2858
sL64544L
(F1.7777777777777777
L64556L
tp2859
sL2241448L
(F1.0
L2241456L
tp2860
sL54185L
(F17.066666666666666
L54196L
tp2861
sL71120L
(F1.0
L71188L
tp2862
sL86955L
(F2.0
L86960L
tp2863
sL37805L
(F2.0
L37807L
tp2864
sL30992L
(F82.0
L31009L
tp2865
sL70575L
(F1.7181208053691275
L70582L
tp2866
sL37808L
(F2.0
L37867L
tp2867
sL103240L
(F1.8767468499427262
L103265L
tp2868
sL46003L
(F3.9384615384615387
L46021L
tp2869
sL54196L
(F34.13333333333333
L54200L
tp2870
sL70582L
(F0.8590604026845637
L70648L
tp2871
sL2241464L
(F1.0
L2241472L
tp2872
sL85492L
(F190.5808796801163
L85555L
tp2873
sL13246L
(F2.0
L13266L
tp2874
sL29631L
(F0.6666666666666666
L29640L
tp2875
sL2241472L
(F1.0
L2241480L
tp2876
sL92320L
(F2.0
L92340L
tp2877
sL62402L
(F7.016326749103367
L62408L
tp2878
sL49995L
(F2.0
L50004L
tp2879
sL78788L
(F170.66666666666666
L78799L
tp2880
sL19958L
(F1.6
L19963L
tp2881
sL2241480L
(F1.0
L2241488L
tp2882
sL69728L
(F0.4
L69731L
tp2883
sL29645L
(F2.6666666666666665
L29654L
tp2884
sL46031L
(F10.502564102564103
L46052L
tp2885
sL2241488L
(F1.0
L2241496L
tp2886
sL97784L
(F0.15749000307597663
L97808L
tp2887
sL13266L
(F4.0
L13271L
tp2888
sL75184L
(F1.0
L75217L
tp2889
sL54228L
(F3.7785977859778597
L54237L
tp2890
sL74574L
(F5.456953737161792
L74579L
tp2891
sL29654L
(F1.7777777777777777
L29674L
tp2892
sL52729L
(F10.666666666666666
L52734L
tp2893
sL2241496L
(F1.0
L2241504L
tp2894
sL103386L
(F9.846153846153847
L103391L
tp2895
sL54237L
(F1.7009966777408638
L54246L
tp2896
sL103391L
(F3.282051282051282
L103410L
tp2897
sL2241504L
(F1.0
L2241512L
tp2898
sL2241896L
(F1.0
L2241904L
tp2899
sL56663L
(F0.8
L56692L
tp2900
sL58272L
(F2.3378995433789953
L58282L
tp2901
sL46052L
(F21.005128205128205
L46101L
tp2902
sL47088L
(F3.1219512195121952
L47097L
tp2903
sL2241512L
(F1.0
L2241520L
tp2904
sL21482L
(F0.7398843930635838
L21494L
tp2905
sL62443L
(F5.095220509630897
L62470L
tp2906
sL2241520L
(F1.0
L2241528L
tp2907
sL59560L
(F6.168674698795181
L59581L
tp2908
sL103410L
(F2.4615384615384617
L103423L
tp2909
sL91552L
(F2.0
L91576L
tp2910
sL37876L
(F2.0
L37881L
tp2911
sL21494L
(F2.0
L21508L
tp2912
sL2241528L
(F1.0
L2241536L
tp2913
sL29689L
(F0.7191011235955056
L29727L
tp2914
sL45664L
(F12.8
L45671L
tp2915
sL103145L
(F4.432900432900433
L103161L
tp2916
sL62337L
(F1.8754578754578755
L62346L
tp2917
sL103423L
(F2.8890848174925057
L103451L
tp2918
sL2241536L
(F1.0
L2241544L
tp2919
sL52736L
(F1.0
L52745L
tp2920
sL87044L
(F1.3333333333333333
L87056L
tp2921
sL14464L
(F2.0
L14491L
tp2922
sL2241544L
(F1.0
L2241552L
tp2923
sL22700L
(F94.70520231213872
L22702L
tp2924
sL54283L
(F2.0
L54294L
tp2925
sL13325L
(F2.6666666666666665
L13335L
tp2926
sL21518L
(F2.0
L21532L
tp2927
sL95247L
(F1.0
L95275L
tp2928
sL62480L
(F15.058823529411764
L62508L
tp2929
sL29216L
(F4.0
L29230L
tp2930
sL87924L
(F51.2
L87933L
tp2931
sL46101L
(F10.502564102564103
L46141L
tp2932
sL54294L
(F4.0
L54298L
tp2933
sL13335L
(F5.333333333333333
L13345L
tp2934
sL70680L
(F9.142857142857142
L70704L
tp2935
sL54298L
(F8.0
L54307L
tp2936
sL21532L
(F4.0
L21546L
tp2937
sL28165L
(F5.818181818181818
L28174L
tp2938
sL103456L
(F1.0
L103478L
tp2939
sL75952L
(F1.5802469135802468
L75966L
tp2940
sL2241576L
(F1.0
L2241584L
tp2941
sL66512L
(F1.8625854400250104
L66521L
tp2942
sL21546L
(F2.6666666666666665
L21551L
tp2943
sL95275L
(F2.0
L95285L
tp2944
sL21551L
(F2.2857142857142856
L21567L
tp2945
sL78896L
(F10.666666666666666
L78903L
tp2946
sL74096L
(F0.9430446940278622
L74104L
tp2947
sL12720L
(F1.0
L12720L
tp2948
sL54324L
(F2.6666666666666665
L54335L
tp2949
sL87093L
(F1.1228070175438596
L87095L
tp2950
sL103478L
(F2.0
L103498L
tp2951
sL2241592L
(F1.0
L2241600L
tp2952
sL29753L
(F2.6666666666666665
L29766L
tp2953
sL46141L
(F3.7067873303167422
L46231L
tp2954
sL21567L
(F1.3333333333333333
L21629L
tp2955
sL87104L
(F1.0
L87122L
tp2956
sL82784L
(F0.8888888888888888
L82807L
tp2957
sL95298L
(F8.0
L95310L
tp2958
sL70728L
(F36.57142857142857
L70745L
tp2959
sL54045L
(F2.0
L54062L
tp2960
sL103498L
(F1.0
L103512L
tp2961
sL39095L
(F64.0
L39106L
tp2962
sL95074L
(F16.0
L95088L
tp2963
sL95310L
(F2.6666666666666665
L95323L
tp2964
sL32168L
(F82.0
L32178L
tp2965
sL29776L
(F3.5555555555555554
L29813L
tp2966
sL87122L
(F2.0
L87128L
tp2967
sL29088L
(F1.0
L29095L
tp2968
sL87128L
(F0.6666666666666666
L87145L
tp2969
sL75322L
(F1.6
L75333L
tp2970
sL54363L
(F2.0
L54374L
tp2971
sL13404L
(F2.3703703703703702
L13432L
tp2972
sL55482L
(F1.0
L55487L
tp2973
sL103520L
(F2.0
L103520L
tp2974
sL52752L
(F1.0
L52762L
tp2975
sL38824L
(F64.0
L38833L
tp2976
sL54374L
(F4.0
L54378L
tp2977
sL62568L
(F1.885385500575374
L62581L
tp2978
sL87145L
(F1.0
L87152L
tp2979
sL28816L
(F2.0
L28825L
tp2980
sL54119L
(F0.8
L54127L
tp2981
sL65369L
(F8.0
L65387L
tp2982
sL54432L
(F1.0
L54473L
tp2983
sL82960L
(F0.9411764705882353
L82978L
tp2984
sL65323L
(F2.859441113178689
L65331L
tp2985
sL29816L
(F5.333333333333333
L29841L
tp2986
sL78970L
(F2.0357852882703775
L78975L
tp2987
sL55487L
(F2.0
L55494L
tp2988
sL21629L
(F1.8823529411764706
L21682L
tp2989
sL78975L
(F2.6666666666666665
L78985L
tp2990
sL54400L
(F10.666666666666666
L54404L
tp2991
sL75968L
(F1.0
L75988L
tp2992
sL87170L
(F1.0
L87184L
tp2993
sL62315L
(F15.058823529411764
L62320L
tp2994
sL13444L
(F4.7407407407407405
L13453L
tp2995
sL70791L
(F16.0
L70800L
tp2996
sL62600L
(F3.750915750915751
L62612L
tp2997
sL78985L
(F56.888888888888886
L78990L
tp2998
sL44880L
(F1.6
L44896L
tp2999
sL13453L
(F9.481481481481481
L13455L
tp3000
sL69189L
(F128.0
L69245L
tp3001
sL54415L
(F0.9696969696969697
L54417L
tp3002
sL87184L
(F1.0
L87191L
tp3003
sL54417L
(F0.8311688311688312
L54419L
tp3004
sL95379L
(F10.666666666666666
L95390L
tp3005
sL62612L
(F7.501831501831502
L62617L
tp3006
sL100832L
(F1.0984178063824082
L100848L
tp3007
sL46231L
(F7.4135746606334845
L46309L
tp3008
sL79232L
(F8.0
L79274L
tp3009
sL62617L
(F15.003663003663004
L62625L
tp3010
sL78464L
(F4.0
L78473L
tp3011
sL74607L
(F0.23946224020341353
L74616L
tp3012
sL100161L
(F9.99355938166053
L100172L
tp3013
sL39729L
(F8.0
L39755L
tp3014
sL95390L
(F5.333333333333333
L95404L
tp3015
sL29856L
(F2.3703703703703702
L29861L
tp3016
sL95088L
(F32.0
L95133L
tp3017
sL29861L
(F1.1851851851851851
L29874L
tp3018
sL89056L
(F0.5217162314254755
L89065L
tp3019
sL72736L
(F0.5275631117980423
L72745L
tp3020
sL62632L
(F15.003663003663004
L62638L
tp3021
sL61552L
(F1.0068829891838742
L61557L
tp3022
sL95404L
(F10.666666666666666
L95415L
tp3023
sL45458L
(F2.0
L45464L
tp3024
sL69149L
(F32.0
L69166L
tp3025
sL2241712L
(F1.0
L2241720L
tp3026
sL88264L
(F7.922630560928433
L88287L
tp3027
sL13490L
(F4.675799086757991
L13496L
tp3028
sL79027L
(F2.0
L79057L
tp3029
sL103604L
(F4.0
L103609L
tp3030
sL95415L
(F5.333333333333333
L95436L
tp3031
sL13496L
(F0.9752380952380952
L13519L
tp3032
sL94832L
(F32.0
L94860L
tp3033
sL69376L
(F1.6897689768976898
L69381L
tp3034
sL62653L
(F7.059026281775097
L62660L
tp3035
sL97560L
(F3.764705882352941
L97581L
tp3036
sL65448L
(F3.878787878787879
L65461L
tp3037
sL13456L
(F2.3378995433789953
L13464L
tp3038
sL62660L
(F4.706017521183398
L62669L
tp3039
sL103622L
(F16.0
L103637L
tp3040
sL65057L
(F1.3333333333333333
L65067L
tp3041
sL2241736L
(F1.0
L2241744L
tp3042
sL92364L
(F0.745269286754003
L92387L
tp3043
sL82807L
(F2.4615384615384617
L82812L
tp3044
sL95436L
(F2.6666666666666665
L95449L
tp3045
sL62669L
(F9.412035042366796
L62673L
tp3046
sL13520L
(F0.9874638379942141
L13544L
tp3047
sL74616L
(F0.47892448040682706
L74653L
tp3048
sL15907L
(F1.381683251813122
L15916L
tp3049
sL87253L
(F2.0
L87289L
tp3050
sL29911L
(F1.6842105263157894
L29921L
tp3051
sL2241752L
(F1.0
L2241760L
tp3052
sL95449L
(F5.333333333333333
L95458L
tp3053
sL49824L
(F12.8
L49827L
tp3054
sL79068L
(F1.465998568360773
L79088L
tp3055
sL13544L
(F1.9749276759884282
L13553L
tp3056
sL21727L
(F1.1458945307035948
L21756L
tp3057
sL2241760L
(F1.0
L2241768L
tp3058
sL59600L
(F1.7777777777777777
L59624L
tp3059
sL95458L
(F10.666666666666666
L95469L
tp3060
sL21371L
(F1.1743119266055047
L21381L
tp3061
sL55280L
(F1.0
L55301L
tp3062
sL46312L
(F8.0
L46321L
tp3063
sL45948L
(F8.0
L45965L
tp3064
sL54506L
(F0.6666666666666666
L54512L
tp3065
sL70893L
(F7.111111111111111
L70896L
tp3066
sL37952L
(F1.0
L38042L
tp3067
sL2241776L
(F1.0
L2241784L
tp3068
sL13553L
(F0.49373191899710706
L13564L
tp3069
sL62708L
(F7.500114442664225
L62719L
tp3070
sL2241784L
(F1.0
L2241792L
tp3071
sL75988L
(F2.0
L76002L
tp3072
sL54522L
(F0.8888888888888888
L54531L
tp3073
sL95483L
(F10.666666666666666
L95494L
tp3074
sL21756L
(F2.3486238532110093
L21825L
tp3075
sL77354L
(F2.6666666666666665
L77357L
tp3076
sL58827L
(F1.7474402730375427
L58860L
tp3077
sL62719L
(F15.00022888532845
L62724L
tp3078
sL2241792L
(F1.0
L2241800L
tp3079
sL86912L
(F4.0
L86933L
tp3080
sL54531L
(F1.7777777777777777
L54542L
tp3081
sL70916L
(F3.1219512195121952
L70920L
tp3082
sL13574L
(F1.9749276759884282
L13610L
tp3083
sL37761L
(F2.0
L37766L
tp3084
sL2241800L
(F1.0
L2241808L
tp3085
sL46345L
(F32.0
L46355L
tp3086
sL39127L
(F102.4
L39147L
tp3087
sL82014L
(F2.0
L82019L
tp3088
sL54542L
(F3.5555555555555554
L54553L
tp3089
sL77357L
(F1.0
L77367L
tp3090
sL2241808L
(F1.0
L2241816L
tp3091
sL62737L
(F12.337349397590362
L62745L
tp3092
sL14384L
(F4.0
L14416L
tp3093
sL38163L
(F2.0
L38165L
tp3094
sL54736L
(F0.6666666666666666
L54768L
tp3095
sL2241816L
(F1.0
L2241824L
tp3096
sL54553L
(F7.111111111111111
L54562L
tp3097
sL82560L
(F1.0
L82579L
tp3098
sL70942L
(F1.3473684210526315
L70951L
tp3099
sL60192L
(F10.666666666666666
L60205L
tp3100
sL2241824L
(F1.0
L2241832L
tp3101
sL95521L
(F4.266666666666667
L95540L
tp3102
sL46370L
(F1.7006435540793026
L46379L
tp3103
sL79139L
(F5.333333333333333
L79148L
tp3104
sL43408L
(F1.0
L43453L
tp3105
sL39188L
(F51.2
L39221L
tp3106
sL70951L
(F1.0078740157480315
L70961L
tp3107
sL2241832L
(F1.0
L2241840L
tp3108
sL13610L
(F0.9874638379942141
L13633L
tp3109
sL79148L
(F3.2
L79162L
tp3110
sL56882L
(F0.7710843373493976
L56902L
tp3111
sL54576L
(F6.2439024390243905
L54584L
tp3112
sL70961L
(F2.015748031496063
L70969L
tp3113
sL16130L
(F1.6768844992579703
L16162L
tp3114
sL95540L
(F2.3703703703703702
L95549L
tp3115
sL99209L
(F1.6778934162858277
L99229L
tp3116
sL87352L
(F2.0
L87354L
tp3117
sL70969L
(F4.031496062992126
L70976L
tp3118
sL83925L
(F8.768530907144768
L83949L
tp3119
sL103741L
(F2.0
L103747L
tp3120
sL32642L
(F3.2
L32653L
tp3121
sL2241856L
(F1.0
L2241864L
tp3122
sL54593L
(F3.1219512195121952
L54604L
tp3123
sL65067L
(F2.6666666666666665
L65074L
tp3124
sL93200L
(F7.7137476459510355
L93205L
tp3125
sL63713L
(F0.8888888888888888
L63733L
tp3126
sL95560L
(F2.3703703703703702
L95573L
tp3127
sL79177L
(F6.023529411764706
L79190L
tp3128
sL62794L
(F5.891405969075872
L62811L
tp3129
sL54604L
(F1.0847457627118644
L54611L
tp3130
sL99747L
(F4.4209390178089585
L99760L
tp3131
sL62349L
(F1.2503052503052503
L62354L
tp3132
sL48464L
(F1.0
L48529L
tp3133
sL36408L
(F64.0
L36427L
tp3134
sL54611L
(F0.7032967032967034
L54689L
tp3135
sL95573L
(F4.7407407407407405
L95578L
tp3136
sL79190L
(F12.047058823529412
L79198L
tp3137
sL48697L
(F8.0
L48712L
tp3138
sL2241880L
(F1.0
L2241888L
tp3139
sL95578L
(F9.481481481481481
L95584L
tp3140
sL21391L
(F4.697247706422019
L21416L
tp3141
sL60986L
(F48.188235294117646
L61013L
tp3142
sL79198L
(F6.023529411764706
L79230L
tp3143
sL71007L
(F0.8943231441048035
L71022L
tp3144
sL30048L
(F26.666666666666664
L30053L
tp3145
sL54160L
(F0.7619047619047619
L54166L
tp3146
sL65083L
(F1.1428571428571428
L65100L
tp3147
sL76524L
(F1.0
L76533L
tp3148
sL38246L
(F1.0
L38264L
tp3149
sL87400L
(F1.0
L87416L
tp3150
sL13674L
(F4.0
L13719L
tp3151
sL87200L
(F2.0
L87207L
tp3152
sL69742L
(F2.0
L69749L
tp3153
sL2241904L
(F1.0
L2241912L
tp3154
sL46449L
(F4.0
L46458L
tp3155
sL62837L
(F1.336378466557912
L62847L
tp3156
sL15203L
(F2.0
L15222L
tp3157
sL95607L
(F1.7564322469982847
L95623L
tp3158
sL2241912L
(F1.0
L2241920L
tp3159
sL21881L
(F8.0
L21883L
tp3160
sL46458L
(F2.0
L46474L
tp3161
sL103803L
(F2.0
L103858L
tp3162
sL62847L
(F32.0
L62856L
tp3163
sL2241920L
(F1.0
L2241928L
tp3164
sL85568L
(F25.410783957348844
L85577L
tp3165
sL55531L
(F4.0
L55542L
tp3166
sL71044L
(F4.3760683760683765
L71049L
tp3167
sL73281L
(F3.1087835290961965
L73292L
tp3168
sL87432L
(F1.0
L87440L
tp3169
sL57195L
(F0.761409052885956
L57210L
tp3170
sL81766L
(F1.3333333333333333
L81782L
tp3171
sL46480L
(F4.0
L46492L
tp3172
sL82512L
(F1.0
L82512L
tp3173
sL21909L
(F94.70520231213872
L21934L
tp3174
sL87446L
(F4.0
L87458L
tp3175
sL62872L
(F0.303453120741026
L62877L
tp3176
sL54320L
(F10.666666666666666
L54324L
tp3177
sL95644L
(F4.0
L95664L
tp3178
sL102384L
(F2.2857142857142856
L102398L
tp3179
sL71071L
(F2.0
L71084L
tp3180
sL2241952L
(F1.0
L2241960L
tp3181
sL54689L
(F1.4065934065934067
L54696L
tp3182
sL87458L
(F1.0
L87467L
tp3183
sL82019L
(F1.3333333333333333
L82021L
tp3184
sL67016L
(F9.205005447488892
L67054L
tp3185
sL46502L
(F31.50769230769231
L46518L
tp3186
sL2241960L
(F1.0
L2241968L
tp3187
sL66460L
(F2.3388572563342422
L66489L
tp3188
sL79274L
(F8.0
L79304L
tp3189
sL87467L
(F1.3333333333333333
L87476L
tp3190
sL71084L
(F4.0
L71101L
tp3191
sL94528L
(F4.0
L94540L
tp3192
sL21934L
(F47.35260115606936
L21948L
tp3193
sL99229L
(F0.4177147619298019
L99280L
tp3194
sL38320L
(F1.0
L38341L
tp3195
sL103858L
(F1.0
L103898L
tp3196
sL25008L
(F47.35260115606936
L25032L
tp3197
sL87476L
(F1.1428571428571428
L87479L
tp3198
sL46518L
(F21.005128205128205
L46539L
tp3199
sL87479L
(F1.0
L87491L
tp3200
sL45864L
(F8.0
L45874L
tp3201
sL52832L
(F1.5058823529411764
L52852L
tp3202
sL54716L
(F0.796887159533074
L54729L
tp3203
sL71101L
(F7.111111111111111
L71108L
tp3204
sL39920L
(F64.0
L39929L
tp3205
sL63733L
(F1.7777777777777777
L63745L
tp3206
sL30144L
(F1.0
L30193L
tp3207
sL37792L
(F1.0
L37805L
tp3208
sL62914L
(F1.0
L62925L
tp3209
sL2241992L
(F1.0
L2242000L
tp3210
sL65100L
(F2.2857142857142856
L65107L
tp3211
sL62925L
(F2.0
L62937L
tp3212
sL21967L
(F47.35260115606936
L21997L
tp3213
sL46544L
(F21.005128205128205
L46590L
tp3214
sL30968L
(F82.0
L30985L
tp3215
sL70704L
(F18.285714285714285
L70728L
tp3216
sL37408L
(F32.0
L37439L
tp3217
sL2241640L
(F1.0
L2241648L
tp3218
sL103898L
(F2.0
L103910L
tp3219
sL82021L
(F4.0
L82026L
tp3220
sL2242016L
(F1.0
L2242024L
tp3221
sL77392L
(F1.0
L77415L
tp3222
sL62108L
(F2.5476102548154484
L62113L
tp3223
sL74656L
(F0.3930808439597513
L74668L
tp3224
sL103910L
(F1.3333333333333333
L103914L
tp3225
sL2242024L
(F1.0
L2242032L
tp3226
sL103914L
(F0.6666666666666666
L103996L
tp3227
sL91296L
(F2.0
L91307L
tp3228
sL21997L
(F94.70520231213872
L22031L
tp3229
sL32370L
(F328.0
L32390L
tp3230
sL79343L
(F12.8
L79352L
tp3231
sL54768L
(F1.3333333333333333
L54770L
tp3232
sL21416L
(F9.394495412844037
L21472L
tp3233
sL87539L
(F1.0
L87544L
tp3234
sL66746L
(F1.146439608882427
L66770L
tp3235
sL2242040L
(F1.0
L2242048L
tp3236
sL95737L
(F21.333333333333332
L95767L
tp3237
sL30202L
(F1.3333333333333333
L30220L
tp3238
sL88319L
(F3.1937621832358674
L88333L
tp3239
sL62976L
(F1.0
L62994L
tp3240
sL59648L
(F1.0
L59668L
tp3241
sL79365L
(F12.8
L79374L
tp3242
sL62856L
(F7.501831501831502
L62864L
tp3243
sL30220L
(F2.6666666666666665
L30222L
tp3244
sL79374L
(F6.4
L79390L
tp3245
sL22031L
(F9.394495412844037
L22071L
tp3246
sL30224L
(F1.7777777777777777
L30235L
tp3247
sL62994L
(F2.0
L63007L
tp3248
sL71188L
(F2.0
L71202L
tp3249
sL15961L
(F0.7795037704879035
L16003L
tp3250
sL54392L
(F5.333333333333333
L54400L
tp3251
sL30235L
(F0.8888888888888888
L30239L
tp3252
sL87580L
(F0.8888888888888888
L87590L
tp3253
sL79390L
(F12.8
L79401L
tp3254
sL63007L
(F4.0
L63011L
tp3255
sL95776L
(F10.666666666666666
L95794L
tp3256
sL2241456L
(F1.0
L2241464L
tp3257
sL71202L
(F4.0
L71216L
tp3258
sL63011L
(F2.0
L63020L
tp3259
sL70415L
(F2.2857142857142856
L70425L
tp3260
sL85024L
(F4.571428571428571
L85036L
tp3261
sL79401L
(F25.6
L79405L
tp3262
sL63020L
(F4.0
L63032L
tp3263
sL79405L
(F12.8
L79414L
tp3264
sL48733L
(F1.28
L48757L
tp3265
sL87600L
(F1.0
L87641L
tp3266
sL92424L
(F8.0
L92434L
tp3267
sL29104L
(F1.0
L29116L
tp3268
sL46645L
(F2.0
L46662L
tp3269
sL79414L
(F25.6
L79427L
tp3270
sL22071L
(F1.9189505739048958
L22124L
tp3271
sL63032L
(F1.391304347826087
L63046L
tp3272
sL103996L
(F1.3333333333333333
L104018L
tp3273
sL87207L
(F4.0
L87217L
tp3274
sL101119L
(F41.367274282006186
L101141L
tp3275
sL54848L
(F3.5555555555555554
L54853L
tp3276
sL98664L
(F1.6778593103028931
L98689L
tp3277
sL79427L
(F51.2
L79432L
tp3278
sL63046L
(F2.782608695652174
L63062L
tp3279
sL32353L
(F164.0
L32370L
tp3280
sL71240L
(F1.7777777777777777
L71289L
tp3281
sL30282L
(F1.0666666666666667
L30314L
tp3282
sL95824L
(F10.666666666666666
L95842L
tp3283
sL29624L
(F0.5
L29631L
tp3284
sL104018L
(F2.6666666666666665
L104030L
tp3285
sL95664L
(F10.666666666666666
L95682L
tp3286
sL79444L
(F51.2
L79469L
tp3287
sL66489L
(F0.9440582056082177
L66505L
tp3288
sL88528L
(F1.1159872072541892
L88552L
tp3289
sL104030L
(F2.2857142857142856
L104039L
tp3290
sL63072L
(F0.7664670658682635
L63081L
tp3291
sL54881L
(F5.333333333333333
L54886L
tp3292
sL95842L
(F1.7564322469982847
L95847L
tp3293
sL65126L
(F2.206896551724138
L65130L
tp3294
sL82145L
(F5.333333333333333
L82150L
tp3295
sL63081L
(F1.532934131736527
L63090L
tp3296
sL30314L
(F2.1333333333333333
L30332L
tp3297
sL37680L
(F2.0
L37738L
tp3298
sL22124L
(F3.8379011478097915
L22131L
tp3299
sL79469L
(F1.9616858237547892
L79474L
tp3300
sL95856L
(F1.0
L95856L
tp3301
sL20072L
(F2.0
L20126L
tp3302
sL63090L
(F3.065868263473054
L63102L
tp3303
sL22131L
(F1.9189505739048958
L22148L
tp3304
sL104052L
(F0.8421052631578947
L104071L
tp3305
sL54903L
(F6.2439024390243905
L54928L
tp3306
sL79480L
(F6.023529411764706
L79504L
tp3307
sL71289L
(F3.5555555555555554
L71313L
tp3308
sL32688L
(F8.0
L32695L
tp3309
sL63102L
(F0.6213592233009708
L63113L
tp3310
sL30336L
(F4.0
L30381L
tp3311
sL22148L
(F3.8379011478097915
L22192L
tp3312
sL82272L
(F2.0
L82277L
tp3313
sL104071L
(F1.6842105263157894
L104085L
tp3314
sL101840L
(F1.0
L101878L
tp3315
sL63113L
(F1.641025641025641
L63133L
tp3316
sL38539L
(F4.0
L38579L
tp3317
sL86978L
(F2.0
L86980L
tp3318
sL79504L
(F12.047058823529412
L79523L
tp3319
sL46739L
(F2.0
L46744L
tp3320
sL104085L
(F1.6842105263157894
L104090L
tp3321
sL30808L
(F82.0
L30826L
tp3322
sL71320L
(F1.7777777777777777
L71397L
tp3323
sL93807L
(F4.2139917695473255
L93818L
tp3324
sL87708L
(F2.0
L87737L
tp3325
sL63133L
(F3.282051282051282
L63141L
tp3326
sL54942L
(F0.796887159533074
L54947L
tp3327
sL46021L
(F7.876923076923077
L46031L
tp3328
sL97904L
(F18.687197034502425
L97911L
tp3329
sL79523L
(F9.990243902439024
L79533L
tp3330
sL63141L
(F1.641025641025641
L63146L
tp3331
sL52576L
(F5.333333333333333
L52582L
tp3332
sL63146L
(F3.282051282051282
L63154L
tp3333
sL30381L
(F0.8421052631578947
L30401L
tp3334
sL55568L
(F1.0
L55588L
tp3335
sL46768L
(F2.0
L46779L
tp3336
sL29640L
(F1.3333333333333333
L29645L
tp3337
sL63154L
(F1.641025641025641
L63158L
tp3338
sL38579L
(F2.0
L38611L
tp3339
sL63158L
(F3.282051282051282
L63163L
tp3340
sL33536L
(F5.333333333333333
L33552L
tp3341
sL95928L
(F2.0
L95950L
tp3342
sL87737L
(F4.0
L87754L
tp3343
sL63163L
(F6.564102564102564
L63176L
tp3344
sL54975L
(F2.0
L54992L
tp3345
sL27472L
(F2.0
L27491L
tp3346
sL22209L
(F30.703209182478332
L22223L
tp3347
sL46791L
(F0.64
L46801L
tp3348
sL63176L
(F13.128205128205128
L63178L
tp3349
sL94304L
(F4.7407407407407405
L94314L
tp3350
sL87754L
(F8.0
L87769L
tp3351
sL53114L
(F2.0
L53127L
tp3352
sL95950L
(F0.5526173772261198
L95985L
tp3353
sL22223L
(F1.9586371787208607
L22235L
tp3354
sL63184L
(F1.210401891252955
L63193L
tp3355
sL46801L
(F0.3902439024390244
L46808L
tp3356
sL77072L
(F1.0
L77079L
tp3357
sL99760L
(F1.0499871827736478
L99775L
tp3358
sL61536L
(F10.966532797858099
L61541L
tp3359
sL46808L
(F0.7804878048780488
L46810L
tp3360
sL63193L
(F3.065868263473054
L63199L
tp3361
sL46810L
(F1.5609756097560976
L46819L
tp3362
sL95183L
(F2.0
L95247L
tp3363
sL93818L
(F8.427983539094651
L93832L
tp3364
sL63199L
(F6.131736526946108
L63214L
tp3365
sL87776L
(F0.47058823529411764
L87783L
tp3366
sL54224L
(F15.114391143911439
L54228L
tp3367
sL32656L
(F8.0
L32667L
tp3368
sL46819L
(F3.1219512195121952
L46828L
tp3369
sL38628L
(F2.0
L38666L
tp3370
sL71397L
(F3.5555555555555554
L71404L
tp3371
sL87783L
(F0.9411764705882353
L87791L
tp3372
sL60480L
(F0.36550216392272344
L60503L
tp3373
sL61052L
(F12.047058823529412
L61064L
tp3374
sL102168L
(F1.6
L102179L
tp3375
sL99488L
(F1.4451476328033694
L99501L
tp3376
sL71404L
(F1.7777777777777777
L71428L
tp3377
sL38112L
(F1.0
L38163L
tp3378
sL63214L
(F0.4087008581121533
L63237L
tp3379
sL87791L
(F0.47058823529411764
L87798L
tp3380
sL79600L
(F51.2
L79631L
tp3381
sL95985L
(F1.1052347544522396
L96006L
tp3382
sL76029L
(F16.0
L76042L
tp3383
sL46836L
(F1.78397212543554
L46850L
tp3384
sL87798L
(F0.9411764705882353
L87812L
tp3385
sL72483L
(F0.5610022299359267
L72506L
tp3386
sL49130L
(F1.6
L49138L
tp3387
sL22269L
(F1.9189505739048958
L22288L
tp3388
sL35112L
(F1.103448275862069
L35132L
tp3389
sL55040L
(F1.0
L55055L
tp3390
sL44672L
(F1.5238095238095237
L44682L
tp3391
sL46850L
(F3.56794425087108
L46856L
tp3392
sL87812L
(F1.8823529411764706
L87835L
tp3393
sL96006L
(F0.7887161218889905
L96018L
tp3394
sL46856L
(F0.31556240369799693
L46876L
tp3395
sL13271L
(F1.3333333333333333
L13325L
tp3396
sL63245L
(F1.735593220338983
L63257L
tp3397
sL77121L
(F6.4
L77123L
tp3398
sL79631L
(F2.931997136721546
L79636L
tp3399
sL22288L
(F3.8379011478097915
L22319L
tp3400
sL96018L
(F0.42901318163555713
L96028L
tp3401
sL71443L
(F1.4222222222222223
L71493L
tp3402
sL20928L
(F3.583552055993001
L20957L
tp3403
sL74939L
(F0.6443480346453894
L74949L
tp3404
sL21682L
(F1.1743119266055047
L21727L
tp3405
sL30488L
(F12.8
L30505L
tp3406
sL63257L
(F3.471186440677966
L63312L
tp3407
sL98944L
(F0.8580263632711143
L98980L
tp3408
sL87835L
(F0.47761194029850745
L87839L
tp3409
sL96028L
(F0.42901318163555713
L96046L
tp3410
sL91098L
(F1.877714744140737
L91103L
tp3411
sL87839L
(F1.6
L87847L
tp3412
sL79648L
(F1.0
L79685L
tp3413
sL76080L
(F2.015748031496063
L76085L
tp3414
sL62937L
(F2.0
L62949L
tp3415
sL89184L
(F7.578897033128172
L89189L
tp3416
sL23687L
(F47.35260115606936
L23713L
tp3417
sL87847L
(F3.2
L87854L
tp3418
sL78213L
(F2.0
L78220L
tp3419
sL82032L
(F1.0
L82049L
tp3420
sL28295L
(F3.0476190476190474
L28306L
tp3421
sL103696L
(F5.333333333333333
L103716L
tp3422
sL63794L
(F1.6
L63808L
tp3423
sL96046L
(F0.8580263632711143
L96055L
tp3424
sL81328L
(F20.0
L81398L
tp3425
sL30512L
(F12.8
L30532L
tp3426
sL61064L
(F1.8467087466185752
L61081L
tp3427
sL37296L
(F32.0
L37326L
tp3428
sL87861L
(F12.8
L87869L
tp3429
sL16037L
(F3.4653130287648053
L16080L
tp3430
sL96055L
(F1.7160527265422285
L96073L
tp3431
sL46905L
(F3.1219512195121952
L46916L
tp3432
sL87869L
(F25.6
L87924L
tp3433
sL92944L
(F9.481481481481481
L93000L
tp3434
sL55104L
(F2.0
L55139L
tp3435
sL21472L
(F0.3699421965317919
L21482L
tp3436
sL46916L
(F6.2439024390243905
L46921L
tp3437
sL79685L
(F2.0
L79689L
tp3438
sL14152L
(F1.0
L14179L
tp3439
sL79689L
(F4.0
L79693L
tp3440
sL79693L
(F1.0
L79712L
tp3441
sL77453L
(F2.0
L77466L
tp3442
sL63312L
(F6.131736526946108
L63364L
tp3443
sL96081L
(F6.864210906168914
L96107L
tp3444
sL53664L
(F1.0
L53674L
tp3445
sL70304L
(F1.0
L70364L
tp3446
sL55301L
(F2.0
L55304L
tp3447
sL79712L
(F2.0
L79718L
tp3448
sL16016L
(F1.7326565143824026
L16037L
tp3449
sL22370L
(F47.35260115606936
L22396L
tp3450
sL86944L
(F1.0
L86955L
tp3451
sL72131L
(F0.24212509698156426
L72138L
tp3452
sL46950L
(F49.951219512195124
L46962L
tp3453
sL65169L
(F1.6943123061013443
L65184L
tp3454
sL55144L
(F4.0
L55158L
tp3455
sL75600L
(F1.0
L75616L
tp3456
sL50151L
(F21.333333333333332
L50153L
tp3457
sL73145L
(F0.13710997610086248
L73173L
tp3458
sL79728L
(F2.0
L79732L
tp3459
sL78824L
(F2.0357852882703775
L78833L
tp3460
sL42048L
(F1.0
L42059L
tp3461
sL14196L
(F2.6666666666666665
L14203L
tp3462
sL55158L
(F4.0
L55172L
tp3463
sL46968L
(F1.3333333333333333
L46982L
tp3464
sL14203L
(F1.3333333333333333
L14206L
tp3465
sL22396L
(F94.70520231213872
L22421L
tp3466
sL87933L
(F102.4
L87957L
tp3467
sL14206L
(F0.6666666666666666
L14225L
tp3468
sL79744L
(F1.0
L79792L
tp3469
sL92480L
(F2.0
L92510L
tp3470
sL103312L
(F5.704735376044568
L103320L
tp3471
sL87019L
(F0.6666666666666666
L87044L
tp3472
sL38789L
(F2.0
L38794L
tp3473
sL46982L
(F2.6666666666666665
L46991L
tp3474
sL37520L
(F32.0
L37554L
tp3475
sL63368L
(F4.0
L63388L
tp3476
sL67144L
(F2.113519091847265
L67155L
tp3477
sL85584L
(F10.666666666666666
L85602L
tp3478
sL56121L
(F2.0
L56130L
tp3479
sL46991L
(F1.3333333333333333
L47022L
tp3480
sL71568L
(F0.7901234567901234
L71619L
tp3481
sL28312L
(F2.0
L28333L
tp3482
sL55619L
(F2.0
L55637L
tp3483
sL87957L
(F204.8
L87960L
tp3484
sL55190L
(F2.0
L55197L
tp3485
sL64032L
(F3.011764705882353
L64041L
tp3486
sL87960L
(F1.9806576402321083
L87971L
tp3487
sL38809L
(F16.0
L38818L
tp3488
sL66544L
(F0.5923671664537722
L66556L
tp3489
sL91856L
(F1.0
L91912L
tp3490
sL55197L
(F4.0
L55202L
tp3491
sL54256L
(F2.0
L54270L
tp3492
sL38818L
(F32.0
L38824L
tp3493
sL87971L
(F3.9613152804642167
L87994L
tp3494
sL59668L
(F2.0
L59679L
tp3495
sL55208L
(F1.3333333333333333
L55210L
tp3496
sL86128L
(F1.0
L86150L
tp3497
sL22442L
(F47.35260115606936
L22468L
tp3498
sL47022L
(F2.6666666666666665
L47032L
tp3499
sL55216L
(F1.0
L55229L
tp3500
sL51528L
(F2.0
L51530L
tp3501
sL45104L
(F4.063492063492063
L45114L
tp3502
sL14259L
(F5.333333333333333
L14275L
tp3503
sL91584L
(F4.0
L91601L
tp3504
sL63413L
(F3.2
L63425L
tp3505
sL47032L
(F0.8
L47052L
tp3506
sL87994L
(F7.922630560928433
L88001L
tp3507
sL55229L
(F1.0
L55252L
tp3508
sL79807L
(F0.6844919786096256
L79830L
tp3509
sL88001L
(F5.281753707285622
L88008L
tp3510
sL71619L
(F1.5802469135802468
L71815L
tp3511
sL22468L
(F94.70520231213872
L22493L
tp3512
sL38853L
(F128.0
L38889L
tp3513
sL63488L
(F2.0
L63558L
tp3514
sL88008L
(F0.4987822698490015
L88040L
tp3515
sL91312L
(F0.7326714962883463
L91312L
tp3516
sL47052L
(F1.2307692307692308
L47063L
tp3517
sL29936L
(F1.3333333333333333
L29958L
tp3518
sL68944L
(F2.6391752577319587
L68957L
tp3519
sL70648L
(F0.47058823529411764
L70657L
tp3520
sL94368L
(F2.751994625010498
L94391L
tp3521
sL79830L
(F1.3689839572192513
L79839L
tp3522
sL47063L
(F2.4615384615384617
L47072L
tp3523
sL55256L
(F2.0
L55270L
tp3524
sL85668L
(F130.8770902708369
L85680L
tp3525
sL74400L
(F0.7771958822740491
L74413L
tp3526
sL22493L
(F47.35260115606936
L22521L
tp3527
sL29391L
(F0.7191011235955056
L29417L
tp3528
sL102053L
(F2.6666666666666665
L102067L
tp3529
sL79840L
(F4.0
L79861L
tp3530
sL51536L
(F1.0
L51600L
tp3531
sL91040L
(F1.4082860581055527
L91055L
tp3532
sL88585L
(F0.6905916100353438
L88616L
tp3533
sL52960L
(F1.0
L52980L
tp3534
sL30592L
(F1.0
L30604L
tp3535
sL91132L
(F2.8165721162111055
L91143L
tp3536
sL30704L
(F82.0
L30718L
tp3537
sL89768L
(F2.0
L89782L
tp3538
sL79861L
(F8.0
L79870L
tp3539
sL24209L
(F47.35260115606936
L24230L
tp3540
sL47097L
(F6.2439024390243905
L47102L
tp3541
sL38907L
(F8.0
L38913L
tp3542
sL88060L
(F0.44348202685145083
L88072L
tp3543
sL79870L
(F4.0
L79887L
tp3544
sL43304L
(F2.3486238532110093
L43309L
tp3545
sL30720L
(F82.0
L30734L
tp3546
sL37888L
(F2.0
L37890L
tp3547
sL82312L
(F4.0
L82338L
tp3548
sL18774L
(F1.0
L18809L
tp3549
sL103752L
(F2.0
L103757L
tp3550
sL55304L
(F0.6666666666666666
L55321L
tp3551
sL38924L
(F32.0
L38930L
tp3552
sL47118L
(F24.975609756097562
L47152L
tp3553
sL79887L
(F8.0
L79896L
tp3554
sL30736L
(F82.0
L30750L
tp3555
sL43352L
(F14.222222222222221
L43359L
tp3556
sL38930L
(F64.0
L38941L
tp3557
sL54216L
(F7.557195571955719
L54224L
tp3558
sL88088L
(F1.7739281074058033
L88107L
tp3559
sL21508L
(F4.0
L21518L
tp3560
sL77936L
(F18.285714285714285
L77967L
tp3561
sL38941L
(F128.0
L38961L
tp3562
sL96286L
(F1.8248216353492996
L96295L
tp3563
sL30752L
(F82.0
L30766L
tp3564
sL28336L
(F16.0
L28356L
tp3565
sL76123L
(F2.0
L76136L
tp3566
sL78767L
(F85.33333333333333
L78788L
tp3567
sL14374L
(F4.0
L14381L
tp3568
sL96295L
(F3.6496432706985993
L96320L
tp3569
sL90224L
(F4.0
L90273L
tp3570
sL40864L
(F0.8
L40875L
tp3571
sL88107L
(F3.5478562148116066
L88112L
tp3572
sL22572L
(F47.35260115606936
L22591L
tp3573
sL47453L
(F1.1428571428571428
L47460L
tp3574
sL88112L
(F0.2709173887161849
L88125L
tp3575
sL70664L
(F1.1428571428571428
L70674L
tp3576
sL45488L
(F1.0
L45535L
tp3577
sL61128L
(F13.721943048576215
L61131L
tp3578
sL73396L
(F0.08330838315702621
L73410L
tp3579
sL79931L
(F16.0
L79940L
tp3580
sL88125L
(F0.5418347774323699
L88132L
tp3581
sL22591L
(F0.9106269453090262
L22606L
tp3582
sL96320L
(F1.2919906959886007
L96326L
tp3583
sL39264L
(F64.0
L39269L
tp3584
sL88132L
(F1.0836695548647397
L88140L
tp3585
sL17392L
(F1.0
L17392L
tp3586
sL96326L
(F2.5839813919772014
L96336L
tp3587
sL83403L
(F7.0148247257158145
L83406L
tp3588
sL62584L
(F1.8754578754578755
L62593L
tp3589
sL88140L
(F2.1673391097294794
L88149L
tp3590
sL38990L
(F11.636363636363637
L39012L
tp3591
sL63568L
(F3.5555555555555554
L63568L
tp3592
sL79953L
(F16.0
L79962L
tp3593
sL61856L
(F0.3175116881858482
L61882L
tp3594
sL53127L
(F4.0
L53136L
tp3595
sL88149L
(F4.334678219458959
L88152L
tp3596
sL73648L
(F0.2347655293114363
L73675L
tp3597
sL88152L
(F0.3230411293820734
L88169L
tp3598
sL96345L
(F3.4453085226362687
L96352L
tp3599
sL79962L
(F8.0
L79979L
tp3600
sL48826L
(F5.333333333333333
L48847L
tp3601
sL22623L
(F15.784200385356455
L22664L
tp3602
sL96352L
(F0.5488479790759023
L96368L
tp3603
sL58384L
(F1.0
L58403L
tp3604
sL95136L
(F1.0
L95183L
tp3605
sL39012L
(F23.272727272727273
L39038L
tp3606
sL52582L
(F1.6842105263157894
L52586L
tp3607
sL55400L
(F1.3333333333333333
L55407L
tp3608
sL88169L
(F3.9233716475095783
L88191L
tp3609
sL79979L
(F16.0
L79994L
tp3610
sL25344L
(F94.70520231213872
L25383L
tp3611
sL74770L
(F1.12774110489901
L74778L
tp3612
sL96368L
(F0.708717687585278
L96385L
tp3613
sL48160L
(F2.0
L48177L
tp3614
sL59753L
(F1.3333333333333333
L59761L
tp3615
sL79994L
(F16.0
L80007L
tp3616
sL58584L
(F0.8888888888888888
L58599L
tp3617
sL51488L
(F1.0
L51500L
tp3618
sL87061L
(F5.333333333333333
L87067L
tp3619
sL63616L
(F0.7619047619047619
L63629L
tp3620
sL44736L
(F0.6153846153846154
L44741L
tp3621
sL50128L
(F5.333333333333333
L50133L
tp3622
sL80007L
(F32.0
L80012L
tp3623
sL88200L
(F7.095712429623213
L88205L
tp3624
sL103048L
(F0.5693633583541841
L103068L
tp3625
sL50199L
(F2.0
L50202L
tp3626
sL16576L
(F2.0
L16596L
tp3627
sL88205L
(F14.191424859246426
L88210L
tp3628
sL47248L
(F2.4615384615384617
L47258L
tp3629
sL2241560L
(F1.0
L2241568L
tp3630
sL2241936L
(F1.0
L2241944L
tp3631
sL71829L
(F1.2641975308641975
L71862L
tp3632
sL55446L
(F2.0
L55482L
tp3633
sL88216L
(F6.240929435291877
L88221L
tp3634
sL22681L
(F94.70520231213872
L22683L
tp3635
sL63642L
(F6.095238095238095
L63653L
tp3636
sL22683L
(F47.35260115606936
L22700L
tp3637
sL80028L
(F32.0
L80037L
tp3638
sL88221L
(F3.1204647176459384
L88230L
tp3639
sL30880L
(F82.0
L30941L
tp3640
sL31088L
(F82.0
L31098L
tp3641
sL16304L
(F6.930626057529611
L16327L
tp3642
sL46360L
(F2.206896551724138
L46370L
tp3643
sL80037L
(F64.0
L80040L
tp3644
sL88230L
(F2.55800156128025
L88248L
tp3645
sL59761L
(F2.6666666666666665
L59769L
tp3646
sL80040L
(F1.8823529411764706
L80057L
tp3647
sL24483L
(F47.35260115606936
L24495L
tp3648
sL2241664L
(F1.0
L2241672L
tp3649
sL64800L
(F1.3333333333333333
L64814L
tp3650
sL63660L
(F6.095238095238095
L63671L
tp3651
sL22702L
(F47.35260115606936
L22719L
tp3652
sL101680L
(F2.0
L101692L
tp3653
sL96432L
(F0.8319036195202852
L96436L
tp3654
sL39089L
(F32.0
L39095L
tp3655
sL79312L
(F6.4
L79343L
tp3656
sL96436L
(F0.8295316338497346
L96442L
tp3657
sL56944L
(F1.9248120300751879
L56954L
tp3658
sL71862L
(F2.528395061728395
L71909L
tp3659
sL47287L
(F4.923076923076923
L47336L
tp3660
sL14520L
(F2.6666666666666665
L14532L
tp3661
sL80057L
(F3.657142857142857
L80070L
tp3662
sL96442L
(F1.6590632676994692
L96456L
tp3663
sL63679L
(F2.4150943396226414
L63688L
tp3664
sL88256L
(F3.9613152804642167
L88264L
tp3665
sL42016L
(F5.333333333333333
L42037L
tp3666
sL39106L
(F128.0
L39117L
tp3667
sL61131L
(F10.68057366362451
L61144L
tp3668
sL13345L
(F2.6666666666666665
L13368L
tp3669
sL96456L
(F3.3181265353989384
L96478L
tp3670
sL99504L
(F3.3557868325716553
L99555L
tp3671
sL39117L
(F51.2
L39127L
tp3672
sL69325L
(F8.0
L69342L
tp3673
sL80080L
(F8.0
L80110L
tp3674
sL74681L
(F1.5723233758390052
L74742L
tp3675
sL91171L
(F3.755429488281474
L91184L
tp3676
sL90278L
(F1.3128205128205128
L90283L
tp3677
sL22742L
(F94.70520231213872
L22744L
tp3678
sL59769L
(F5.333333333333333
L59777L
tp3679
sL63704L
(F0.6066350710900474
L63713L
tp3680
sL39376L
(F64.0
L39386L
tp3681
sL82592L
(F1.0
L82625L
tp3682
sL55516L
(F2.0
L55531L
tp3683
sL92538L
(F2.6666666666666665
L92549L
tp3684
sL96478L
(F6.636253070797877
L96480L
tp3685
sL88287L
(F2.6580142764438675
L88295L
tp3686
sL96480L
(F0.4159518097601426
L96489L
tp3687
sL77520L
(F0.6666666666666666
L77549L
tp3688
sL22756L
(F94.70520231213872
L22795L
tp3689
sL71909L
(F1.2641975308641975
L72039L
tp3690
sL88295L
(F7.922630560928433
L88299L
tp3691
sL96489L
(F0.8319036195202852
L96509L
tp3692
sL15488L
(F4.0
L15497L
tp3693
sL88299L
(F15.845261121856867
L88315L
tp3694
sL14336L
(F1.0
L14354L
tp3695
sL80112L
(F8.0
L80142L
tp3696
sL54312L
(F5.333333333333333
L54320L
tp3697
sL32128L
(F82.0
L32151L
tp3698
sL87440L
(F2.0
L87446L
tp3699
sL80254L
(F1.3689839572192513
L80259L
tp3700
sL55542L
(F2.0
L55544L
tp3701
sL14584L
(F4.0
L14589L
tp3702
sL88315L
(F15.845261121856867
L88319L
tp3703
sL47356L
(F9.846153846153847
L47369L
tp3704
sL100324L
(F3.333199072716964
L100338L
tp3705
sL81408L
(F2.0
L81479L
tp3706
sL98005L
(F2.4983898454151325
L98016L
tp3707
sL55552L
(F2.0
L55560L
tp3708
sL63745L
(F1.28
L63778L
tp3709
sL91424L
(F2.0
L91431L
tp3710
sL59777L
(F10.666666666666666
L59786L
tp3711
sL66604L
(F0.4862697759059112
L66612L
tp3712
sL46688L
(F1.0
L46739L
tp3713
sL88333L
(F6.387524366471735
L88345L
tp3714
sL47376L
(F1.0
L47402L
tp3715
sL96529L
(F1.6590632676994692
L96545L
tp3716
sL100739L
(F3.1171993911719937
L100791L
tp3717
sL62408L
(F2.5476102548154484
L62443L
tp3718
sL69749L
(F4.0
L69756L
tp3719
sL88345L
(F12.77504873294347
L88359L
tp3720
sL50133L
(F10.666666666666666
L50151L
tp3721
sL94051L
(F5.041397307276583
L94082L
tp3722
sL14623L
(F2.0
L14684L
tp3723
sL58416L
(F0.8
L58424L
tp3724
sL63778L
(F0.8
L63794L
tp3725
sL22819L
(F47.35260115606936
L22831L
tp3726
sL55588L
(F2.0
L55593L
tp3727
sL88359L
(F1.7292733125758615
L88377L
tp3728
sL31016L
(F82.0
L31033L
tp3729
sL55593L
(F4.0
L55608L
tp3730
sL22831L
(F94.70520231213872
L22870L
tp3731
sL47408L
(F1.0
L47424L
tp3732
sL76168L
(F2.0
L76188L
tp3733
sL96562L
(F2.4957108585608556
L96586L
tp3734
sL69342L
(F64.0
L69359L
tp3735
sL31113L
(F82.0
L31126L
tp3736
sL55608L
(F8.0
L55619L
tp3737
sL88377L
(F3.458546625151723
L88387L
tp3738
sL49840L
(F1.0
L49859L
tp3739
sL20128L
(F1.0
L20145L
tp3740
sL59786L
(F21.333333333333332
L59800L
tp3741
sL95285L
(F4.0
L95298L
tp3742
sL80192L
(F16.0
L80222L
tp3743
sL44768L
(F1.8823529411764706
L44773L
tp3744
sL88387L
(F2.3056977501011486
L88420L
tp3745
sL47435L
(F0.5714285714285714
L47453L
tp3746
sL73442L
(F2.244008919743707
L73484L
tp3747
sL39246L
(F1.062240663900415
L39255L
tp3748
sL63823L
(F0.7619047619047619
L63842L
tp3749
sL31040L
(F82.0
L31079L
tp3750
sL13368L
(F5.333333333333333
L13377L
tp3751
sL22870L
(F47.35260115606936
L22894L
tp3752
sL99385L
(F1.382180457371688
L99391L
tp3753
sL55640L
(F4.0
L55649L
tp3754
sL14684L
(F0.8
L14686L
tp3755
sL96605L
(F0.8690457229836787
L96611L
tp3756
sL14128L
(F1.0
L14141L
tp3757
sL80224L
(F16.0
L80254L
tp3758
sL18832L
(F2.0
L18848L
tp3759
sL63842L
(F1.5238095238095237
L63862L
tp3760
sL96611L
(F1.7380914459673573
L96617L
tp3761
sL88420L
(F4.611395500202297
L88451L
tp3762
sL14693L
(F4.0
L14706L
tp3763
sL72039L
(F0.47921846207844626
L72061L
tp3764
sL55656L
(F2.0
L55714L
tp3765
sL96617L
(F3.4761828919347146
L96649L
tp3766
sL39269L
(F128.0
L39279L
tp3767
sL47467L
(F4.571428571428571
L47472L
tp3768
sL22894L
(F47.35260115606936
L22906L
tp3769
sL39279L
(F256.0
L39299L
tp3770
sL47472L
(F9.142857142857142
L47477L
tp3771
sL44776L
(F1.2307692307692308
L44785L
tp3772
sL96509L
(F0.8295316338497346
L96529L
tp3773
sL47477L
(F6.095238095238095
L47484L
tp3774
sL63862L
(F0.757396449704142
L63870L
tp3775
sL86689L
(F16.0
L86710L
tp3776
sL22906L
(F94.70520231213872
L22945L
tp3777
sL54335L
(F0.9696969696969697
L54337L
tp3778
sL41680L
(F0.8
L41689L
tp3779
sL72061L
(F0.9584369241568925
L72080L
tp3780
sL63870L
(F1.514792899408284
L63875L
tp3781
sL47488L
(F1.0666666666666667
L47505L
tp3782
sL50240L
(F1.0
L50251L
tp3783
sL2241944L
(F1.0
L2241952L
tp3784
sL88451L
(F9.222791000404595
L88460L
tp3785
sL14725L
(F2.0
L14738L
tp3786
sL13377L
(F10.666666666666666
L13379L
tp3787
sL63880L
(F1.5238095238095237
L63891L
tp3788
sL96649L
(F6.952365783869429
L96656L
tp3789
sL77415L
(F2.0
L77426L
tp3790
sL88460L
(F4.611395500202297
L88475L
tp3791
sL102125L
(F0.8
L102168L
tp3792
sL80272L
(F1.0
L80278L
tp3793
sL47505L
(F2.782608695652174
L47520L
tp3794
sL14738L
(F4.0
L14754L
tp3795
sL63891L
(F1.7297297297297298
L63903L
tp3796
sL80278L
(F2.0
L80296L
tp3797
sL39320L
(F128.0
L39340L
tp3798
sL72089L
(F0.383374769662757
L72100L
tp3799
sL69359L
(F512.0
L69376L
tp3800
sL63903L
(F3.4594594594594597
L63920L
tp3801
sL47520L
(F0.3565459610027855
L47525L
tp3802
sL22945L
(F47.35260115606936
L22969L
tp3803
sL14754L
(F2.6666666666666665
L14764L
tp3804
sL88475L
(F1.160869199395971
L88498L
tp3805
sL72100L
(F0.3194789747189642
L72131L
tp3806
sL47525L
(F0.713091922005571
L47533L
tp3807
sL80296L
(F4.0
L80312L
tp3808
sL102512L
(F3.324675324675325
L102525L
tp3809
sL14764L
(F3.2
L14773L
tp3810
sL47533L
(F0.4753946146703807
L47545L
tp3811
sL80144L
(F32.0
L80175L
tp3812
sL63920L
(F2.3063063063063063
L63923L
tp3813
sL2241608L
(F1.0
L2241616L
tp3814
sL88498L
(F2.321738398791942
L88503L
tp3815
sL57075L
(F20.531328320802004
L57095L
tp3816
sL55321L
(F1.0
L55374L
tp3817
sL96784L
(F0.5478420247557025
L96791L
tp3818
sL80312L
(F8.0
L80340L
tp3819
sL22969L
(F47.35260115606936
L22981L
tp3820
sL74416L
(F1.5293954740431375
L74487L
tp3821
sL97057L
(F15.13436863975836
L97072L
tp3822
sL88512L
(F2.148893046780378
L88515L
tp3823
sL31136L
(F82.0
L31151L
tp3824
sL50251L
(F2.0
L50259L
tp3825
sL54776L
(F1.7777777777777777
L54848L
tp3826
sL31176L
(F82.0
L31200L
tp3827
sL47561L
(F4.571428571428571
L47573L
tp3828
sL72138L
(F0.3898562191037638
L72142L
tp3829
sL85751L
(F130.8770902708369
L85764L
tp3830
sL88524L
(F2.148893046780378
L88528L
tp3831
sL63950L
(F2.7675675675675677
L63952L
tp3832
sL63952L
(F1.5238095238095237
L63967L
tp3833
sL20216L
(F18.0
L20226L
tp3834
sL80340L
(F16.0
L80370L
tp3835
sL72149L
(F0.3898562191037638
L72157L
tp3836
sL61177L
(F1.8467087466185752
L61198L
tp3837
sL32232L
(F20.825396825396826
L32240L
tp3838
sL39386L
(F128.0
L39392L
tp3839
sL15680L
(F11.130434782608695
L15686L
tp3840
sL72157L
(F0.2190557366090081
L72166L
tp3841
sL55774L
(F1.0
L55778L
tp3842
sL63967L
(F3.0476190476190474
L63978L
tp3843
sL96736L
(F1.7485025143012414
L96778L
tp3844
sL54352L
(F1.0
L54363L
tp3845
sL55778L
(F2.0
L55782L
tp3846
sL33500L
(F1.3333333333333333
L33516L
tp3847
sL55782L
(F0.8
L55794L
tp3848
sL88552L
(F2.2319744145083784
L88559L
tp3849
sL73872L
(F8.976035678974828
L73877L
tp3850
sL46321L
(F16.0
L46345L
tp3851
sL23020L
(F47.35260115606936
L23044L
tp3852
sL62688L
(F1.8750286106660563
L62697L
tp3853
sL39406L
(F26.94736842105263
L39444L
tp3854
sL88559L
(F4.463948829016757
L88585L
tp3855
sL14832L
(F1.0
L14837L
tp3856
sL55794L
(F1.6
L55800L
tp3857
sL25683L
(F47.35260115606936
L25707L
tp3858
sL14837L
(F2.0
L14894L
tp3859
sL15497L
(F8.0
L15512L
tp3860
sL31784L
(F82.0
L31801L
tp3861
sL80381L
(F2.0
L80397L
tp3862
sL59688L
(F2.0
L59699L
tp3863
sL77568L
(F1.0
L77600L
tp3864
sL98696L
(F2.354022988505747
L98726L
tp3865
sL23044L
(F47.35260115606936
L23056L
tp3866
sL98049L
(F4.996779690830265
L98056L
tp3867
sL72201L
(F0.6092872233856367
L72224L
tp3868
sL96778L
(F3.4970050286024827
L96784L
tp3869
sL80397L
(F2.0
L80431L
tp3870
sL96685L
(F6.952365783869429
L96699L
tp3871
sL64016L
(F3.0476190476190474
L64024L
tp3872
sL58456L
(F5.333333333333333
L58466L
tp3873
sL95696L
(F4.7407407407407405
L95714L
tp3874
sL21853L
(F4.0
L21881L
tp3875
sL70745L
(F1.7181208053691275
L70758L
tp3876
sL39448L
(F32.0
L39455L
tp3877
sL99290L
(F0.345545114342922
L99300L
tp3878
sL2241568L
(F1.0
L2241576L
tp3879
sL101152L
(F39.990335182028055
L101159L
tp3880
sL72224L
(F0.3786068854158994
L72237L
tp3881
sL31152L
(F82.0
L31169L
tp3882
sL95323L
(F5.333333333333333
L95379L
tp3883
sL70055L
(F4.0
L70060L
tp3884
sL88616L
(F1.0429163536776795
L88636L
tp3885
sL96809L
(F0.6245974613537831
L96828L
tp3886
sL79057L
(F4.0
L79064L
tp3887
sL39468L
(F25.6
L39488L
tp3888
sL72237L
(F0.5492601109440722
L72259L
tp3889
sL14894L
(F4.0
L14907L
tp3890
sL29232L
(F1.0
L29267L
tp3891
sL48904L
(F4.0
L48956L
tp3892
sL63923L
(F1.3837837837837839
L63950L
tp3893
sL23095L
(F47.35260115606936
L23119L
tp3894
sL64056L
(F3.011764705882353
L64066L
tp3895
sL14907L
(F1.1428571428571428
L14909L
tp3896
sL88636L
(F4.463948829016757
L88729L
tp3897
sL62320L
(F0.9377289377289377
L62337L
tp3898
sL55871L
(F2.0
L55881L
tp3899
sL39488L
(F25.6
L39509L
tp3900
sL2241632L
(F1.0
L2241640L
tp3901
sL64066L
(F1.0940170940170941
L64070L
tp3902
sL72259L
(F1.0985202218881445
L72327L
tp3903
sL64070L
(F0.37591776798825255
L64075L
tp3904
sL73484L
(F4.488017839487414
L73492L
tp3905
sL64075L
(F1.1428571428571428
L64091L
tp3906
sL31308L
(F328.0
L31332L
tp3907
sL82652L
(F3.2
L82657L
tp3908
sL23119L
(F47.35260115606936
L23131L
tp3909
sL55888L
(F1.0
L55908L
tp3910
sL96849L
(F4.996779690830265
L96865L
tp3911
sL39509L
(F12.8
L39529L
tp3912
sL23131L
(F94.70520231213872
L23170L
tp3913
sL47708L
(F0.8
L47729L
tp3914
sL53728L
(F4.0
L53736L
tp3915
sL64096L
(F0.3858327053504145
L64114L
tp3916
sL36624L
(F2.0
L36636L
tp3917
sL38616L
(F4.0
L38628L
tp3918
sL96699L
(F13.904731567738859
L96725L
tp3919
sL55908L
(F2.0
L55912L
tp3920
sL96872L
(F0.9087714460619525
L96882L
tp3921
sL27776L
(F0.7272727272727273
L27795L
tp3922
sL80492L
(F1.0
L80582L
tp3923
sL24230L
(F47.35260115606936
L24245L
tp3924
sL12320L
(F1.0
L12320L
tp3925
sL55921L
(F2.0
L55934L
tp3926
sL96882L
(F0.8693703342216795
L96907L
tp3927
sL47731L
(F3.2
L47735L
tp3928
sL15774L
(F13.861252115059221
L15811L
tp3929
sL47735L
(F6.4
L47742L
tp3930
sL84309L
(F1.8662717849413373
L84314L
tp3931
sL39545L
(F7.757575757575758
L39565L
tp3932
sL2241648L
(F1.0
L2241656L
tp3933
sL54378L
(F8.0
L54387L
tp3934
sL47742L
(F12.8
L47760L
tp3935
sL64128L
(F4.51225557697604
L64145L
tp3936
sL100800L
(F1.2183224271267104
L100818L
tp3937
sL23170L
(F47.35260115606936
L23194L
tp3938
sL50283L
(F32.0
L50302L
tp3939
sL85171L
(F327.1927256770922
L85183L
tp3940
sL72327L
(F2.197040443776289
L72341L
tp3941
sL31368L
(F82.0
L31385L
tp3942
sL94336L
(F2.751994625010498
L94350L
tp3943
sL96907L
(F1.738740668443359
L96911L
tp3944
sL32960L
(F1.0
L32979L
tp3945
sL39565L
(F7.757575757575758
L39600L
tp3946
sL95682L
(F6.320987654320987
L95690L
tp3947
sL74787L
(F1.12774110489901
L74792L
tp3948
sL55952L
(F4.0
L55989L
tp3949
sL89880L
(F4.571428571428571
L89912L
tp3950
sL88515L
(F1.074446523390189
L88524L
tp3951
sL64148L
(F1.804902230790416
L64188L
tp3952
sL72341L
(F4.394080887552578
L72355L
tp3953
sL88729L
(F8.927897658033514
L88742L
tp3954
sL23194L
(F47.35260115606936
L23206L
tp3955
sL25632L
(F47.35260115606936
L25644L
tp3956
sL55056L
(F1.0
L55067L
tp3957
sL22981L
(F94.70520231213872
L23020L
tp3958
sL31392L
(F82.0
L31415L
tp3959
sL70768L
(F4.0
L70779L
tp3960
sL47778L
(F0.5079365079365079
L47796L
tp3961
sL72355L
(F1.3744214265748749
L72369L
tp3962
sL68960L
(F8.0
L68973L
tp3963
sL15017L
(F2.0
L15030L
tp3964
sL39235L
(F32.0
L39246L
tp3965
sL96939L
(F1.21193186373065
L96949L
tp3966
sL63240L
(F2.42080378250591
L63245L
tp3967
sL99392L
(F0.8354295238596038
L99431L
tp3968
sL39600L
(F8.0
L39627L
tp3969
sL72369L
(F2.7488428531497497
L72395L
tp3970
sL47424L
(F0.2857142857142857
L47435L
tp3971
sL47796L
(F1.0158730158730158
L47802L
tp3972
sL96949L
(F2.4238637274613
L96959L
tp3973
sL15030L
(F1.3333333333333333
L15038L
tp3974
sL31415L
(F164.0
L31428L
tp3975
sL21264L
(F0.34408602150537637
L21274L
tp3976
sL85063L
(F3.657142857142857
L85072L
tp3977
sL61215L
(F3.6934174932371504
L61221L
tp3978
sL64188L
(F0.6468730259001895
L64204L
tp3979
sL15038L
(F1.0
L15045L
tp3980
sL96959L
(F4.8477274549226
L96972L
tp3981
sL47808L
(F3.2
L47815L
tp3982
sL77600L
(F1.0
L77679L
tp3983
sL90519L
(F5.333333333333333
L90543L
tp3984
sL75516L
(F4.0
L75534L
tp3985
sL80582L
(F2.0
L80598L
tp3986
sL47815L
(F6.4
L47822L
tp3987
sL31432L
(F82.0
L31454L
tp3988
sL72395L
(F5.4976857062994995
L72403L
tp3989
sL96972L
(F9.6954549098452
L97010L
tp3990
sL23245L
(F47.35260115606936
L23269L
tp3991
sL47822L
(F6.4
L47834L
tp3992
sL56016L
(F2.0
L56052L
tp3993
sL2241656L
(F1.0
L2241664L
tp3994
sL102179L
(F0.6153846153846154
L102192L
tp3995
sL39636L
(F16.0
L39664L
tp3996
sL72142L
(F0.7797124382075276
L72149L
tp3997
sL72408L
(F0.5610022299359267
L72458L
tp3998
sL64218L
(F2.587492103600758
L64226L
tp3999
sL15068L
(F1.0
L15086L
tp4000
sL37600L
(F2.0
L37600L
tp4001
sL47840L
(F1.6
L47867L
tp4002
sL59856L
(F1.3333333333333333
L59868L
tp4003
sL64226L
(F5.174984207201516
L64233L
tp4004
sL70779L
(F8.0
L70791L
tp4005
sL14141L
(F2.0
L14152L
tp4006
sL43056L
(F14.222222222222221
L43085L
tp4007
sL64233L
(F2.587492103600758
L64236L
tp4008
sL37744L
(F1.0
L37761L
tp4009
sL95584L
(F0.8782161234991424
L95607L
tp4010
sL20688L
(F1.7917760279965005
L20743L
tp4011
sL39664L
(F8.0
L39703L
tp4012
sL23281L
(F94.70520231213872
L23320L
tp4013
sL97010L
(F19.3909098196904
L97017L
tp4014
sL62547L
(F10.715500327011119
L62561L
tp4015
sL56052L
(F2.6666666666666665
L56066L
tp4016
sL87520L
(F2.0
L87539L
tp4017
sL31480L
(F82.0
L31497L
tp4018
sL97017L
(F38.7818196393808
L97036L
tp4019
sL79064L
(F8.0
L79068L
tp4020
sL14776L
(F4.0
L14794L
tp4021
sL96725L
(F27.809463135477717
L96736L
tp4022
sL47872L
(F6.4
L47881L
tp4023
sL99456L
(F1.6778934162858277
L99480L
tp4024
sL73515L
(F0.9584369241568925
L73527L
tp4025
sL46876L
(F0.6311248073959939
L46887L
tp4026
sL15112L
(F2.0
L15140L
tp4027
sL47881L
(F1.0158730158730158
L47886L
tp4028
sL72458L
(F1.1220044598718535
L72483L
tp4029
sL92631L
(F4.7407407407407405
L92677L
tp4030
sL97036L
(F4.8477274549226
L97041L
tp4031
sL40875L
(F1.0666666666666667
L40877L
tp4032
sL53232L
(F1.0
L53268L
tp4033
sL47888L
(F1.0
L47904L
tp4034
sL14688L
(F2.0
L14693L
tp4035
sL31848L
(F15.619047619047619
L31857L
tp4036
sL53696L
(F1.0
L53703L
tp4037
sL39703L
(F16.0
L39729L
tp4038
sL23320L
(F47.35260115606936
L23344L
tp4039
sL54404L
(F2.6666666666666665
L54415L
tp4040
sL97052L
(F7.56718431987918
L97057L
tp4041
sL103206L
(F2.5377942998760843
L103211L
tp4042
sL64287L
(F2.25612778848802
L64323L
tp4043
sL47904L
(F2.0
L47910L
tp4044
sL53040L
(F1.391304347826087
L53067L
tp4045
sL88866L
(F1.633964361199938
L88889L
tp4046
sL68059L
(F3.9688747934307957
L68062L
tp4047
sL80676L
(F1.6666666666666665
L80726L
tp4048
sL84521L
(F5.333333333333333
L84529L
tp4049
sL47910L
(F4.0
L47918L
tp4050
sL14416L
(F8.0
L14454L
tp4051
sL47918L
(F8.0
L47927L
tp4052
sL102525L
(F1.6623376623376624
L102536L
tp4053
sL97072L
(F0.887080604117693
L97077L
tp4054
sL2241672L
(F1.0
L2241680L
tp4055
sL24371L
(F94.70520231213872
L24410L
tp4056
sL79792L
(F2.0
L79807L
tp4057
sL97077L
(F0.26669580234816054
L97087L
tp4058
sL71428L
(F1.7777777777777777
L71443L
tp4059
sL47927L
(F16.0
L47937L
tp4060
sL88889L
(F3.5970949603047875
L88951L
tp4061
sL72506L
(F1.1220044598718535
L72516L
tp4062
sL15166L
(F1.3333333333333333
L15178L
tp4063
sL97087L
(F0.26669580234816054
L97093L
tp4064
sL47937L
(F7.111111111111111
L47942L
tp4065
sL56130L
(F4.0
L56134L
tp4066
sL64323L
(F4.51225557697604
L64343L
tp4067
sL72516L
(F2.244008919743707
L72526L
tp4068
sL97093L
(F0.5333916046963211
L97105L
tp4069
sL14817L
(F16.0
L14819L
tp4070
sL32567L
(F2.0
L32575L
tp4071
sL58608L
(F1.0
L58643L
tp4072
sL72526L
(F4.488017839487414
L72541L
tp4073
sL83085L
(F1.4301675977653632
L83094L
tp4074
sL56144L
(F4.0
L56176L
tp4075
sL97105L
(F1.0667832093926422
L97113L
tp4076
sL86432L
(F2.0
L86445L
tp4077
sL23381L
(F94.70520231213872
L23411L
tp4078
sL47697L
(F0.6666666666666666
L47708L
tp4079
sL64343L
(F9.02451115395208
L64355L
tp4080
sL31576L
(F82.0
L31593L
tp4081
sL97113L
(F0.9482517416823486
L97157L
tp4082
sL71024L
(F2.1880341880341883
L71044L
tp4083
sL72544L
(F3.1604938271604937
L72561L
tp4084
sL2241680L
(F1.0
L2241688L
tp4085
sL69435L
(F3.2
L69447L
tp4086
sL39780L
(F32.0
L39815L
tp4087
sL72166L
(F0.4381114732180162
L72179L
tp4088
sL29841L
(F10.666666666666666
L29851L
tp4089
sL80744L
(F2.0
L80774L
tp4090
sL86160L
(F1.0
L86184L
tp4091
sL40800L
(F0.6513994910941476
L40812L
tp4092
sL56176L
(F2.0
L56191L
tp4093
sL14824L
(F2.0
L14826L
tp4094
sL23411L
(F47.35260115606936
L23437L
tp4095
sL41424L
(F4.0
L41435L
tp4096
sL91616L
(F4.0
L91633L
tp4097
sL15222L
(F1.0
L15286L
tp4098
sL68073L
(F3.9688747934307957
L68129L
tp4099
sL69248L
(F256.0
L69325L
tp4100
sL32575L
(F4.0
L32585L
tp4101
sL55504L
(F1.0
L55516L
tp4102
sL56191L
(F4.0
L56196L
tp4103
sL40768L
(F1.6
L40784L
tp4104
sL56196L
(F8.0
L56208L
tp4105
sL97157L
(F0.2586141113679133
L97181L
tp4106
sL65345L
(F1.6339663503878221
L65355L
tp4107
sL72584L
(F2.197040443776289
L72617L
tp4108
sL52336L
(F1.0
L52362L
tp4109
sL48010L
(F16.0
L48021L
tp4110
sL87191L
(F0.7272727272727273
L87194L
tp4111
sL23437L
(F94.70520231213872
L23462L
tp4112
sL56208L
(F1.3333333333333333
L56252L
tp4113
sL13464L
(F1.1689497716894977
L13477L
tp4114
sL31634L
(F164.0
L31647L
tp4115
sL48021L
(F32.0
L48031L
tp4116
sL56824L
(F0.31683168316831684
L56832L
tp4117
sL39834L
(F3.764705882352941
L39854L
tp4118
sL97181L
(F0.5172282227358266
L97189L
tp4119
sL13056L
(F1.0
L13056L
tp4120
sL35697L
(F4.047430830039525
L35704L
tp4121
sL31648L
(F82.0
L31735L
tp4122
sL63984L
(F6.095238095238095
L63992L
tp4123
sL48035L
(F10.666666666666666
L48048L
tp4124
sL97189L
(F0.2586141113679133
L97197L
tp4125
sL23462L
(F47.35260115606936
L23483L
tp4126
sL89000L
(F1.1248580557132133
L89007L
tp4127
sL103580L
(F2.0
L103604L
tp4128
sL69447L
(F1.1428571428571428
L69453L
tp4129
sL97197L
(F0.18969752088297875
L97216L
tp4130
sL39854L
(F3.764705882352941
L39875L
tp4131
sL89007L
(F2.2497161114264266
L89021L
tp4132
sL48048L
(F21.333333333333332
L48085L
tp4133
sL57160L
(F1.229476211916554
L57175L
tp4134
sL72179L
(F0.8762229464360324
L72201L
tp4135
sL50334L
(F8.0
L50343L
tp4136
sL88072L
(F0.8869640537029017
L88088L
tp4137
sL2242032L
(F1.0
L2242040L
tp4138
sL101984L
(F1.0
L102016L
tp4139
sL90800L
(F1.6
L90808L
tp4140
sL56252L
(F2.2857142857142856
L56268L
tp4141
sL29424L
(F2.0
L29432L
tp4142
sL55817L
(F0.8421052631578947
L55852L
tp4143
sL58339L
(F10.03921568627451
L58344L
tp4144
sL64448L
(F6.918918918918919
L64464L
tp4145
sL33952L
(F2.435196195005945
L33965L
tp4146
sL39875L
(F1.8823529411764706
L39891L
tp4147
sL23495L
(F94.70520231213872
L23534L
tp4148
sL64464L
(F12.19047619047619
L64478L
tp4149
sL63992L
(F12.19047619047619
L64004L
tp4150
sL80850L
(F1.8181818181818181
L80869L
tp4151
sL56275L
(F2.6666666666666665
L56290L
tp4152
sL29152L
(F1.0
L29163L
tp4153
sL89047L
(F8.998864445705706
L89055L
tp4154
sL48088L
(F4.0
L48092L
tp4155
sL48092L
(F8.0
L48102L
tp4156
sL64478L
(F24.38095238095238
L64483L
tp4157
sL89055L
(F17.997728891411413
L89056L
tp4158
sL62952L
(F2.0
L62976L
tp4159
sL28496L
(F1.3544973544973544
L28496L
tp4160
sL56290L
(F1.1428571428571428
L56302L
tp4161
sL70152L
(F4.0
L70157L
tp4162
sL48102L
(F8.0
L48139L
tp4163
sL51248L
(F1.0
L51260L
tp4164
sL80872L
(F20.0
L80929L
tp4165
sL89065L
(F1.043432462850951
L89076L
tp4166
sL40064L
(F102.4
L40086L
tp4167
sL66727L
(F1.8655515311111073
L66746L
tp4168
sL62759L
(F3.4420168067226893
L62768L
tp4169
sL23534L
(F47.35260115606936
L23628L
tp4170
sL56304L
(F4.0
L56318L
tp4171
sL2241704L
(F1.0
L2241712L
tp4172
sL72690L
(F8.788161775105156
L72700L
tp4173
sL89076L
(F1.1248580557132133
L89091L
tp4174
sL64504L
(F0.7252124645892352
L64511L
tp4175
sL39929L
(F128.0
L39934L
tp4176
sL62160L
(F0.32076961998055636
L62170L
tp4177
sL64511L
(F0.29568269694959914
L64528L
tp4178
sL15360L
(F1.0
L15434L
tp4179
sL89091L
(F2.2497161114264266
L89151L
tp4180
sL78800L
(F1.1636363636363636
L78802L
tp4181
sL61270L
(F0.7310043278454469
L61275L
tp4182
sL91009L
(F6.660162601626016
L91017L
tp4183
sL77709L
(F8.0
L77720L
tp4184
sL97291L
(F8.0
L97303L
tp4185
sL45248L
(F3.5555555555555554
L45274L
tp4186
sL48144L
(F5.333333333333333
L48151L
tp4187
sL102232L
(F4.923076923076923
L102241L
tp4188
sL86984L
(F2.0
L86986L
tp4189
sL79536L
(F12.8
L79566L
tp4190
sL78232L
(F1.6
L78241L
tp4191
sL97303L
(F0.8888888888888888
L97308L
tp4192
sL64004L
(F24.38095238095238
L64006L
tp4193
sL97308L
(F1.7777777777777777
L97321L
tp4194
sL69466L
(F3.5555555555555554
L69479L
tp4195
sL17152L
(F1.0
L17159L
tp4196
sL56352L
(F2.0
L56364L
tp4197
sL62640L
(F3.5295131408875484
L62653L
tp4198
sL87217L
(F8.0
L87234L
tp4199
sL80936L
(F20.0
L81000L
tp4200
sL72745L
(F1.0551262235960845
L72761L
tp4201
sL64556L
(F1.293746051800379
L64560L
tp4202
sL29874L
(F2.3703703703703702
L29911L
tp4203
sL50432L
(F8.0
L50441L
tp4204
sL57181L
(F1.522818105771912
L57195L
tp4205
sL97328L
(F1.8823529411764706
L97337L
tp4206
sL24245L
(F94.70520231213872
L24284L
tp4207
sL78256L
(F2.4615384615384617
L78259L
tp4208
sL89520L
(F10.666666666666666
L89532L
tp4209
sL48184L
(F16.0
L48222L
tp4210
sL97337L
(F0.9411764705882353
L97350L
tp4211
sL19608L
(F1.2307692307692308
L19633L
tp4212
sL32607L
(F4.0
L32618L
tp4213
sL89151L
(F2.321738398791942
L89161L
tp4214
sL40000L
(F3.764705882352941
L40029L
tp4215
sL61280L
(F1.0
L61360L
tp4216
sL64578L
(F2.25612778848802
L64600L
tp4217
sL50160L
(F10.666666666666666
L50163L
tp4218
sL97350L
(F1.8823529411764706
L97359L
tp4219
sL102241L
(F9.846153846153847
L102330L
tp4220
sL74304L
(F3.5555555555555554
L74322L
tp4221
sL89161L
(F17.997728891411413
L89171L
tp4222
sL15434L
(F2.0
L15447L
tp4223
sL13392L
(F1.1851851851851851
L13404L
tp4224
sL33867L
(F21.333333333333332
L33888L
tp4225
sL97359L
(F3.764705882352941
L97368L
tp4226
sL2241720L
(F1.0
L2241728L
tp4227
sL22192L
(F7.675802295619583
L22201L
tp4228
sL2241968L
(F1.0
L2241976L
tp4229
sL103609L
(F8.0
L103622L
tp4230
sL97368L
(F1.2075471698113207
L97384L
tp4231
sL89177L
(F71.99091556564565
L89182L
tp4232
sL83713L
(F0.7270629479242938
L83721L
tp4233
sL49888L
(F1.0
L49909L
tp4234
sL31839L
(F164.0
L31841L
tp4235
sL48224L
(F21.333333333333332
L48256L
tp4236
sL47632L
(F1.0
L47697L
tp4237
sL83131L
(F2.388338192419825
L83147L
tp4238
sL89189L
(F3.789448516564086
L89198L
tp4239
sL15462L
(F0.6523721356188656
L15480L
tp4240
sL31249L
(F164.0
L31276L
tp4241
sL97384L
(F0.42953020134228187
L97397L
tp4242
sL56426L
(F2.0
L56435L
tp4243
sL2241696L
(F1.0
L2241704L
tp4244
sL89198L
(F3.5999545726697084
L89206L
tp4245
sL63388L
(F1.6
L63413L
tp4246
sL31857L
(F31.238095238095237
L31866L
tp4247
sL83792L
(F8.768530907144768
L83802L
tp4248
sL56435L
(F1.3333333333333333
L56450L
tp4249
sL97397L
(F0.8590604026845637
L97405L
tp4250
sL89206L
(F1.8461359260502654
L89216L
tp4251
sL31866L
(F62.476190476190474
L31875L
tp4252
sL97405L
(F1.7181208053691275
L97415L
tp4253
sL23679L
(F47.35260115606936
L23687L
tp4254
sL89216L
(F34.13333333333333
L89247L
tp4255
sL2241728L
(F1.0
L2241736L
tp4256
sL56450L
(F2.6666666666666665
L56494L
tp4257
sL31875L
(F124.95238095238095
L31881L
tp4258
sL32704L
(F8.0
L32714L
tp4259
sL97415L
(F3.436241610738255
L97421L
tp4260
sL31200L
(F82.0
L31217L
tp4261
sL72841L
(F1.3814502529510961
L72846L
tp4262
sL96791L
(F0.4541197531659079
L96809L
tp4263
sL97421L
(F6.87248322147651
L97481L
tp4264
sL72846L
(F2.7629005059021923
L72852L
tp4265
sL64024L
(F6.095238095238095
L64026L
tp4266
sL23344L
(F47.35260115606936
L23381L
tp4267
sL50371L
(F1.7777777777777777
L50376L
tp4268
sL72852L
(F0.076932871791596
L72874L
tp4269
sL31893L
(F3.9047619047619047
L31898L
tp4270
sL15512L
(F1.3333333333333333
L15530L
tp4271
sL31898L
(F7.809523809523809
L31900L
tp4272
sL31900L
(F15.619047619047619
L31909L
tp4273
sL21248L
(F1.2307692307692308
L21257L
tp4274
sL89247L
(F2.0
L89278L
tp4275
sL48288L
(F1.0
L48346L
tp4276
sL69488L
(F2.0
L69496L
tp4277
sL89171L
(F35.995457782822825
L89177L
tp4278
sL22744L
(F47.35260115606936
L22756L
tp4279
sL31909L
(F31.238095238095237
L31914L
tp4280
sL76896L
(F2.0
L76937L
tp4281
sL72874L
(F0.153865743583192
L72889L
tp4282
sL15533L
(F2.2857142857142856
L15546L
tp4283
sL38370L
(F1.0
L38451L
tp4284
sL58568L
(F5.333333333333333
L58578L
tp4285
sL56498L
(F2.6666666666666665
L56505L
tp4286
sL31923L
(F1.5922330097087378
L31932L
tp4287
sL20976L
(F1.0
L21017L
tp4288
sL103760L
(F1.0
L103803L
tp4289
sL54473L
(F2.0
L54496L
tp4290
sL56505L
(F1.0
L56521L
tp4291
sL15546L
(F4.571428571428571
L15557L
tp4292
sL39455L
(F64.0
L39456L
tp4293
sL31932L
(F3.1844660194174756
L31942L
tp4294
sL89278L
(F8.0
L89309L
tp4295
sL36656L
(F73.14285714285714
L36714L
tp4296
sL81088L
(F20.0
L81126L
tp4297
sL18976L
(F1.0
L18988L
tp4298
sL14288L
(F1.0
L14331L
tp4299
sL79352L
(F6.4
L79365L
tp4300
sL64710L
(F2.0
L64724L
tp4301
sL68129L
(F7.9377495868615915
L68137L
tp4302
sL93264L
(F6.963025924351891
L93280L
tp4303
sL56521L
(F2.0
L56532L
tp4304
sL40032L
(F256.0
L40054L
tp4305
sL72909L
(F2.110252447192169
L72915L
tp4306
sL23759L
(F47.35260115606936
L23771L
tp4307
sL97488L
(F1.1052347544522396
L97505L
tp4308
sL73592L
(F8.0
L73594L
tp4309
sL72915L
(F4.220504894384338
L72939L
tp4310
sL64724L
(F1.0
L64735L
tp4311
sL37344L
(F32.0
L37376L
tp4312
sL53711L
(F4.0
L53719L
tp4313
sL54496L
(F0.3333333333333333
L54506L
tp4314
sL56536L
(F5.333333333333333
L56545L
tp4315
sL48346L
(F2.0
L48368L
tp4316
sL23771L
(F94.70520231213872
L23810L
tp4317
sL15580L
(F11.130434782608695
L15594L
tp4318
sL89309L
(F5.951931772022343
L89340L
tp4319
sL64735L
(F2.0
L64760L
tp4320
sL2241744L
(F1.0
L2241752L
tp4321
sL91200L
(F4.506515385937768
L91207L
tp4322
sL31972L
(F50.95145631067961
L31984L
tp4323
sL95720L
(F10.666666666666666
L95737L
tp4324
sL81126L
(F10.0
L81172L
tp4325
sL62673L
(F1.7647565704437742
L62688L
tp4326
sL97512L
(F6.636253070797877
L97530L
tp4327
sL83520L
(F2.8603351955307263
L83547L
tp4328
sL72939L
(F8.441009788768676
L72944L
tp4329
sL65405L
(F32.0
L65415L
tp4330
sL56560L
(F1.0
L56614L
tp4331
sL40179L
(F51.2
L40201L
tp4332
sL101449L
(F2.0
L101459L
tp4333
sL64041L
(F1.5058823529411764
L64056L
tp4334
sL64760L
(F1.0
L64800L
tp4335
sL97530L
(F13.272506141595754
L97540L
tp4336
sL63671L
(F12.19047619047619
L63679L
tp4337
sL102192L
(F1.2307692307692308
L102210L
tp4338
sL72957L
(F1.6517794132473032
L72962L
tp4339
sL103637L
(F3.2
L103649L
tp4340
sL89344L
(F1.0
L89378L
tp4341
sL57216L
(F7.376857271499325
L57234L
tp4342
sL23810L
(F47.35260115606936
L23814L
tp4343
sL97540L
(F0.650333810275725
L97553L
tp4344
sL23814L
(F23.67630057803468
L23836L
tp4345
sL72968L
(F1.0985202218881445
L72983L
tp4346
sL31276L
(F328.0
L31308L
tp4347
sL78536L
(F1.3333333333333333
L78566L
tp4348
sL81794L
(F1.3333333333333333
L81804L
tp4349
sL92448L
(F1.0
L92480L
tp4350
sL64897L
(F1.0666666666666667
L64933L
tp4351
sL83160L
(F0.3704775687409551
L83176L
tp4352
sL15640L
(F2.782608695652174
L15657L
tp4353
sL20508L
(F1.28
L20519L
tp4354
sL23836L
(F47.35260115606936
L23858L
tp4355
sL52096L
(F0.5
L52104L
tp4356
sL75536L
(F4.0
L75545L
tp4357
sL40223L
(F32.0
L40252L
tp4358
sL72992L
(F1.1220044598718535
L73022L
tp4359
sL55856L
(F2.0
L55871L
tp4360
sL89378L
(F2.0
L89398L
tp4361
sL88969L
(F2.5706871052328255
L89000L
tp4362
sL84529L
(F10.666666666666666
L84543L
tp4363
sL15657L
(F5.565217391304348
L15665L
tp4364
sL91085L
(F2.8165721162111055
L91090L
tp4365
sL65415L
(F64.0
L65444L
tp4366
sL97581L
(F7.529411764705882
L97589L
tp4367
sL86064L
(F1.0
L86083L
tp4368
sL100087L
(F2.5698554313239286
L100094L
tp4369
sL64816L
(F2.0
L64848L
tp4370
sL15665L
(F3.710144927536232
L15677L
tp4371
sL23858L
(F23.67630057803468
L23892L
tp4372
sL97589L
(F5.019607843137255
L97600L
tp4373
sL75264L
(F1.0
L75275L
tp4374
sL32060L
(F164.0
L32106L
tp4375
sL22719L
(F94.70520231213872
L22721L
tp4376
sL89408L
(F2.6666666666666665
L89431L
tp4377
sL56641L
(F2.0
L56651L
tp4378
sL19344L
(F16.0
L19381L
tp4379
sL100906L
(F6.666398145433928
L100915L
tp4380
sL83448L
(F8.768530907144768
L83466L
tp4381
sL76592L
(F1.0
L76605L
tp4382
sL57141L
(F7.376857271499325
L57152L
tp4383
sL81224L
(F20.0
L81283L
tp4384
sL81804L
(F0.8888888888888888
L81809L
tp4385
sL56651L
(F4.0
L56663L
tp4386
sL85165L
(F163.5963628385461
L85171L
tp4387
sL64848L
(F4.0
L64853L
tp4388
sL77720L
(F5.818181818181818
L77750L
tp4389
sL70883L
(F3.5555555555555554
L70893L
tp4390
sL23892L
(F47.35260115606936
L23899L
tp4391
sL64853L
(F8.0
L64876L
tp4392
sL68736L
(F16.0
L68750L
tp4393
sL89431L
(F5.333333333333333
L89452L
tp4394
sL19072L
(F4.0
L19079L
tp4395
sL23899L
(F23.67630057803468
L23953L
tp4396
sL68154L
(F1.5974943859233197
L68198L
tp4397
sL46896L
(F1.5609756097560976
L46905L
tp4398
sL73056L
(F2.7488428531497497
L73075L
tp4399
sL16272L
(F6.930626057529611
L16280L
tp4400
sL38512L
(F0.2857142857142857
L38512L
tp4401
sL97638L
(F1.6677524429967427
L97644L
tp4402
sL81809L
(F0.8888888888888888
L81830L
tp4403
sL40297L
(F2.0
L40326L
tp4404
sL32106L
(F82.0
L32118L
tp4405
sL89452L
(F0.7804878048780488
L89462L
tp4406
sL15726L
(F12.962025316455696
L15742L
tp4407
sL80176L
(F32.0
L80186L
tp4408
sL64880L
(F1.6
L64897L
tp4409
sL2241768L
(F1.0
L2241776L
tp4410
sL29674L
(F1.28
L29689L
tp4411
sL28692L
(F3.2
L28698L
tp4412
sL56692L
(F1.6
L56704L
tp4413
sL89462L
(F0.9846153846153847
L89467L
tp4414
sL62697L
(F3.7500572213321126
L62708L
tp4415
sL73080L
(F1.5802469135802468
L73091L
tp4416
sL89467L
(F1.3333333333333333
L89482L
tp4417
sL13072L
(F1.0
L13246L
tp4418
sL15744L
(F3.4653130287648053
L15764L
tp4419
sL97665L
(F6.671009771986971
L97672L
tp4420
sL81283L
(F10.0
L81328L
tp4421
sL65992L
(F3.3886246122026886
L66001L
tp4422
sL56710L
(F6.4
L56728L
tp4423
sL98726L
(F4.708045977011494
L98737L
tp4424
sL97672L
(F1.2503052503052503
L97691L
tp4425
sL89482L
(F2.6666666666666665
L89501L
tp4426
sL96834L
(F2.4983898454151325
L96849L
tp4427
sL95469L
(F5.333333333333333
L95483L
tp4428
sL40336L
(F2.0
L40352L
tp4429
sL48529L
(F1.3333333333333333
L48552L
tp4430
sL15764L
(F6.930626057529611
L15774L
tp4431
sL91374L
(F0.6666666666666666
L91378L
tp4432
sL32151L
(F164.0
L32164L
tp4433
sL56728L
(F12.8
L56763L
tp4434
sL97691L
(F1.7655172413793103
L97699L
tp4435
sL89501L
(F0.5446808510638298
L89519L
tp4436
sL29440L
(F1.0
L29624L
tp4437
sL73120L
(F0.1880658739435391
L73136L
tp4438
sL79088L
(F2.931997136721546
L79099L
tp4439
sL97699L
(F3.5310344827586206
L97707L
tp4440
sL79905L
(F8.0
L79931L
tp4441
sL50417L
(F4.0
L50426L
tp4442
sL64936L
(F4.0
L64948L
tp4443
sL65245L
(F2.515391110769939
L65258L
tp4444
sL97707L
(F7.062068965517241
L97715L
tp4445
sL12528L
(F1.0
L12528L
tp4446
sL73136L
(F0.3761317478870782
L73145L
tp4447
sL100936L
(F9.152281208225219
L100945L
tp4448
sL97715L
(F14.124137931034483
L97724L
tp4449
sL31224L
(F82.0
L31249L
tp4450
sL29168L
(F1.0
L29173L
tp4451
sL64952L
(F1.3333333333333333
L64969L
tp4452
sL98336L
(F1.2478554292804278
L98353L
tp4453
sL87504L
(F1.0
L87520L
tp4454
sL56763L
(F1.5238095238095237
L56824L
tp4455
sL97724L
(F1.5585996955859969
L97753L
tp4456
sL48576L
(F2.0
L48622L
tp4457
sL16288L
(F3.4653130287648053
L16304L
tp4458
sL15811L
(F1.7326565143824026
L15853L
tp4459
sL87544L
(F2.0
L87552L
tp4460
sL89544L
(F42.666666666666664
L89576L
tp4461
sL23713L
(F94.70520231213872
L23738L
tp4462
sL28896L
(F2.0
L28904L
tp4463
sL64976L
(F1.0
L65048L
tp4464
sL75000L
(F1.5723233758390052
L75005L
tp4465
sL97600L
(F0.5004887585532747
L97638L
tp4466
sL85635L
(F42.666666666666664
L85644L
tp4467
sL73173L
(F0.27421995220172496
L73176L
tp4468
sL87289L
(F4.0
L87314L
tp4469
sL73176L
(F0.19429897056851228
L73192L
tp4470
sL97753L
(F0.3738590726542534
L97765L
tp4471
sL62176L
(F16.449799196787147
L62190L
tp4472
sL2241872L
(F1.0
L2241880L
tp4473
sL75120L
(F1.0
L75125L
tp4474
sL101184L
(F1.0
L101197L
tp4475
sL80464L
(F2.0
L80492L
tp4476
sL75232L
(F1.0
L75261L
tp4477
sL24038L
(F47.35260115606936
L24066L
tp4478
sL100945L
(F9.6954549098452
L100975L
tp4479
sL73192L
(F0.38859794113702456
L73270L
tp4480
sL90273L
(F8.0
L90278L
tp4481
sL20168L
(F18.0
L20173L
tp4482
sL23987L
(F47.35260115606936
L24013L
tp4483
sL48622L
(F4.0
L48697L
tp4484
sL32240L
(F3.1844660194174756
L32248L
tp4485
sL44968L
(F2.4615384615384617
L44982L
tp4486
sL85314L
(F32.719272567709226
L85327L
tp4487
sL80726L
(F1.538461538461538
L80741L
tp4488
sL97781L
(F0.3419031719532554
L97784L
tp4489
sL89592L
(F2.0
L89597L
tp4490
sL39536L
(F128.0
L39545L
tp4491
sL40201L
(F204.8
L40223L
tp4492
sL56832L
(F0.48120300751879697
L56845L
tp4493
sL79104L
(F4.0
L79113L
tp4494
sL24066L
(F47.35260115606936
L24078L
tp4495
sL98219L
(F3.333282984334716
L98223L
tp4496
sL32264L
(F25.475728155339805
L32274L
tp4497
sL63808L
(F0.38095238095238093
L63823L
tp4498
sL24078L
(F94.70520231213872
L24117L
tp4499
sL40463L
(F0.8
L40484L
tp4500
sL97808L
(F0.5839749073282008
L97849L
tp4501
sL64360L
(F3.4594594594594597
L64380L
tp4502
sL32274L
(F50.95145631067961
L32296L
tp4503
sL94126L
(F0.8277062971993929
L94173L
tp4504
sL41992L
(F5.333333333333333
L42015L
tp4505
sL92742L
(F3.992202729044834
L92754L
tp4506
sL102944L
(F2.6666666666666665
L102974L
tp4507
sL34052L
(F1.542894811187494
L34057L
tp4508
sL24495L
(F94.70520231213872
L24534L
tp4509
sL58208L
(F12.8
L58252L
tp4510
sL56863L
(F0.5470085470085471
L56867L
tp4511
sL61360L
(F2.0
L61371L
tp4512
sL101459L
(F4.0
L101472L
tp4513
sL56867L
(F0.6956521739130435
L56880L
tp4514
sL40484L
(F1.6
L40495L
tp4515
sL95494L
(F5.333333333333333
L95521L
tp4516
sL32296L
(F0.8093769278223318
L32307L
tp4517
sL50352L
(F3.5555555555555554
L50365L
tp4518
sL67907L
(F63.75660165670453
L67915L
tp4519
sL83207L
(F2.623959000640615
L83212L
tp4520
sL15916L
(F2.763366503626244
L15944L
tp4521
sL39168L
(F51.2
L39188L
tp4522
sL91912L
(F2.0
L91943L
tp4523
sL40495L
(F3.2
L40504L
tp4524
sL56880L
(F0.8205128205128205
L56882L
tp4525
sL99592L
(F1.7406495630016352
L99612L
tp4526
sL78273L
(F2.4615384615384617
L78278L
tp4527
sL32307L
(F164.0
L32319L
tp4528
sL2241984L
(F1.0
L2241992L
tp4529
sL24117L
(F47.35260115606936
L24158L
tp4530
sL73270L
(F0.7771958822740491
L73275L
tp4531
sL79113L
(F8.0
L79139L
tp4532
sL65080L
(F2.206896551724138
L65083L
tp4533
sL97849L
(F1.1679498146564016
L97867L
tp4534
sL73275L
(F1.5543917645480982
L73281L
tp4535
sL40509L
(F0.6464646464646465
L40539L
tp4536
sL32319L
(F82.0
L32353L
tp4537
sL76384L
(F10.666666666666666
L76399L
tp4538
sL2241624L
(F1.0
L2241632L
tp4539
sL44982L
(F8.0
L45010L
tp4540
sL56902L
(F1.5421686746987953
L56917L
tp4541
sL96865L
(F9.99355938166053
L96872L
tp4542
sL15944L
(F0.9878210539008803
L15961L
tp4543
sL83212L
(F1.3279299724428595
L83220L
tp4544
sL97867L
(F2.335899629312803
L97886L
tp4545
sL73292L
(F0.6217567058192393
L73297L
tp4546
sL60544L
(F6.095238095238095
L60571L
tp4547
sL91405L
(F5.333333333333333
L91411L
tp4548
sL81488L
(F1.0
L81497L
tp4549
sL73297L
(F0.13922153673084153
L73312L
tp4550
sL48456L
(F2.0
L48460L
tp4551
sL65107L
(F4.571428571428571
L65117L
tp4552
sL2241600L
(F1.0
L2241608L
tp4553
sL56920L
(F0.9624060150375939
L56944L
tp4554
sL81497L
(F2.0
L81504L
tp4555
sL40539L
(F0.3256997455470738
L40559L
tp4556
sL16080L
(F6.930626057529611
L16087L
tp4557
sL65117L
(F1.103448275862069
L65126L
tp4558
sL97886L
(F4.671799258625606
L97893L
tp4559
sL92773L
(F4.0
L92784L
tp4560
sL73312L
(F0.1301609340971762
L73320L
tp4561
sL29968L
(F26.666666666666664
L30001L
tp4562
sL94096L
(F2.4020213267959214
L94126L
tp4563
sL77755L
(F11.636363636363637
L77760L
tp4564
sL70364L
(F2.0
L70368L
tp4565
sL97893L
(F9.343598517251213
L97904L
tp4566
sL20392L
(F2.6666666666666665
L20408L
tp4567
sL73320L
(F0.2603218681943524
L73370L
tp4568
sL65130L
(F1.0666666666666667
L65150L
tp4569
sL81515L
(F1.0
L81520L
tp4570
sL81504L
(F0.6666666666666666
L81515L
tp4571
sL47952L
(F8.0
L48010L
tp4572
sL81520L
(F1.0
L81552L
tp4573
sL55912L
(F1.0
L55921L
tp4574
sL37152L
(F1.7777777777777777
L37157L
tp4575
sL46355L
(F64.0
L46360L
tp4576
sL40904L
(F0.4
L40915L
tp4577
sL48757L
(F2.6666666666666665
L48775L
tp4578
sL97911L
(F9.343598517251213
L97939L
tp4579
sL24184L
(F94.70520231213872
L24209L
tp4580
sL83220L
(F2.655859944885719
L83246L
tp4581
sL56954L
(F3.8496240601503757
L56970L
tp4582
sL65150L
(F0.8471561530506722
L65169L
tp4583
sL18809L
(F1.0
L18832L
tp4584
sL77760L
(F23.272727272727273
L77769L
tp4585
sL64091L
(F2.2857142857142856
L64096L
tp4586
sL99280L
(F0.8354295238596038
L99290L
tp4587
sL37904L
(F1.0
L37952L
tp4588
sL48775L
(F5.333333333333333
L48826L
tp4589
sL89736L
(F0.6666666666666666
L89768L
tp4590
sL56970L
(F0.6135410425404434
L56993L
tp4591
sL84550L
(F2.6666666666666665
L84561L
tp4592
sL81552L
(F0.6666666666666666
L81560L
tp4593
sL87320L
(F4.0
L87345L
tp4594
sL97939L
(F3.1145328390837372
L97954L
tp4595
sL40596L
(F0.3256997455470738
L40651L
tp4596
sL62745L
(F24.674698795180724
L62747L
tp4597
sL81560L
(F1.3333333333333333
L81573L
tp4598
sL85096L
(F1.1277533039647578
L85114L
tp4599
sL73370L
(F0.1301609340971762
L73383L
tp4600
sL100975L
(F19.3909098196904
L100985L
tp4601
sL62728L
(F6.168674698795181
L62737L
tp4602
sL38896L
(F4.0
L38907L
tp4603
sL65184L
(F3.3886246122026886
L65197L
tp4604
sL14960L
(F1.0
L15017L
tp4605
sL97954L
(F0.5188668788497776
L97972L
tp4606
sL86960L
(F0.6666666666666666
L86978L
tp4607
sL81573L
(F0.6666666666666666
L81585L
tp4608
sL54272L
(F1.0
L54283L
tp4609
sL73383L
(F0.1648613655594696
L73396L
tp4610
sL17992L
(F1.1428571428571428
L18013L
tp4611
sL93280L
(F1.3515921465104768
L93287L
tp4612
sL32426L
(F656.0
L32470L
tp4613
sL57000L
(F1.2832080200501252
L57005L
tp4614
sL65197L
(F6.777249224405377
L65210L
tp4615
sL50461L
(F64.0
L50463L
tp4616
sL90288L
(F1.0
L90345L
tp4617
sL81585L
(F1.3333333333333333
L81595L
tp4618
sL97972L
(F1.0377337576995551
L97987L
tp4619
sL57013L
(F5.132832080200501
L57018L
tp4620
sL89782L
(F4.0
L89799L
tp4621
sL2241928L
(F1.0
L2241936L
tp4622
sL53268L
(F2.0
L53323L
tp4623
sL57018L
(F10.265664160401002
L57075L
tp4624
sL81595L
(F0.8888888888888888
L81616L
tp4625
sL32714L
(F16.0
L32721L
tp4626
sL82432L
(F1.0
L82455L
tp4627
sL65216L
(F1.1141409676651592
L65228L
tp4628
sL99616L
(F0.5892789905935748
L99629L
tp4629
sL72080L
(F0.9584369241568925
L72089L
tp4630
sL78278L
(F1.2307692307692308
L78287L
tp4631
sL40651L
(F0.6513994910941476
L40661L
tp4632
sL65228L
(F2.2282819353303185
L65245L
tp4633
sL54562L
(F14.222222222222221
L54571L
tp4634
sL20429L
(F5.333333333333333
L20437L
tp4635
sL81616L
(F1.7777777777777777
L81621L
tp4636
sL101254L
(F6.4
L101262L
tp4637
sL14720L
(F1.0
L14725L
tp4638
sL97644L
(F3.3355048859934855
L97665L
tp4639
sL81621L
(F1.7777777777777777
L81626L
tp4640
sL32470L
(F656.0
L32536L
tp4641
sL16087L
(F2.7722504230118443
L16110L
tp4642
sL48856L
(F1.9393939393939394
L48875L
tp4643
sL81626L
(F1.3333333333333333
L81640L
tp4644
sL24284L
(F47.35260115606936
L24356L
tp4645
sL70368L
(F1.0
L70376L
tp4646
sL96828L
(F1.2491949227075663
L96834L
tp4647
sL98016L
(F4.996779690830265
L98023L
tp4648
sL81872L
(F1.0
L82000L
tp4649
sL73096L
(F1.3814502529510961
L73105L
tp4650
sL98023L
(F2.4983898454151325
L98049L
tp4651
sL89832L
(F0.8
L89863L
tp4652
sL65258L
(F5.030782221539878
L65276L
tp4653
sL48875L
(F3.878787878787879
L48900L
tp4654
sL65490L
(F31.03030303030303
L65493L
tp4655
sL16110L
(F5.544500846023689
L16130L
tp4656
sL81648L
(F1.0
L81760L
tp4657
sL30660L
(F0.24722065196909754
L30675L
tp4658
sL55934L
(F4.0
L55943L
tp4659
sL40694L
(F12.8
L40699L
tp4660
sL69005L
(F51.2
L69051L
tp4661
sL40699L
(F25.6
L40708L
tp4662
sL65276L
(F10.061564443079757
L65286L
tp4663
sL61397L
(F3.764705882352941
L61410L
tp4664
sL66823L
(F1.9923938017720166
L66899L
tp4665
sL76416L
(F1.0
L76421L
tp4666
sL39224L
(F16.0
L39235L
tp4667
sL94087L
(F1.2010106633979607
L94096L
tp4668
sL39760L
(F32.0
L39780L
tp4669
sL65286L
(F2.0677812353333254
L65295L
tp4670
sL89863L
(F2.2857142857142856
L89880L
tp4671
sL98056L
(F9.99355938166053
L98059L
tp4672
sL81008L
(F20.0
L81079L
tp4673
sL23963L
(F23.67630057803468
L23987L
tp4674
sL98059L
(F4.996779690830265
L98074L
tp4675
sL87082L
(F2.2857142857142856
L87093L
tp4676
sL65295L
(F4.135562470666651
L65314L
tp4677
sL57104L
(F1.7109440267335003
L57126L
tp4678
sL40721L
(F6.4
L40741L
tp4679
sL36272L
(F36.57142857142857
L36294L
tp4680
sL86464L
(F1.0
L86481L
tp4681
sL54512L
(F1.3333333333333333
L54522L
tp4682
sL79432L
(F25.6
L79444L
tp4683
sL47729L
(F1.6
L47731L
tp4684
sL73496L
(F0.9584369241568925
L73515L
tp4685
sL98074L
(F1.2496979744383767
L98083L
tp4686
sL103104L
(F2.8444444444444446
L103112L
tp4687
sL41728L
(F0.8888888888888888
L41744L
tp4688
sL32544L
(F1.0
L32557L
tp4689
sL62768L
(F2.945702984537936
L62794L
tp4690
sL65314L
(F1.4297205565893445
L65323L
tp4691
sL98083L
(F2.4993959488767534
L98093L
tp4692
sL24356L
(F47.35260115606936
L24371L
tp4693
sL40741L
(F12.8
L40762L
tp4694
sL57126L
(F3.4218880534670006
L57128L
tp4695
sL36000L
(F2.0
L36006L
tp4696
sL98093L
(F4.998791897753507
L98111L
tp4697
sL69597L
(F32.0
L69599L
tp4698
sL57136L
(F3.6884286357496623
L57141L
tp4699
sL65331L
(F5.718882226357378
L65345L
tp4700
sL41456L
(F1.0
L41486L
tp4701
sL91648L
(F1.0
L91661L
tp4702
sL73527L
(F1.916873848313785
L73541L
tp4703
sL89912L
(F1.391304347826087
L89939L
tp4704
sL50484L
(F2.3063063063063063
L50507L
tp4705
sL48956L
(F1.5802469135802468
L48961L
tp4706
sL98111L
(F9.997583795507014
L98136L
tp4707
sL57152L
(F1.8442143178748311
L57160L
tp4708
sL53216L
(F5.565217391304348
L53225L
tp4709
sL38456L
(F2.0
L38503L
tp4710
sL73544L
(F4.0
L73564L
tp4711
sL32585L
(F1.1428571428571428
L32587L
tp4712
sL102560L
(F3.4770797962648556
L102572L
tp4713
sL85712L
(F42.666666666666664
L85728L
tp4714
sL41184L
(F1.7777777777777777
L41209L
tp4715
sL48976L
(F1.0
L49075L
tp4716
sL2241848L
(F1.0
L2241856L
tp4717
sL89939L
(F2.782608695652174
L89960L
tp4718
sL103328L
(F2.6006349206349206
L103386L
tp4719
sL27278L
(F15.351604591239166
L27294L
tp4720
sL57175L
(F0.761409052885956
L57181L
tp4721
sL98136L
(F4.998791897753507
L98143L
tp4722
sL89799L
(F2.6666666666666665
L89832L
tp4723
sL24410L
(F47.35260115606936
L24483L
tp4724
sL96911L
(F0.605965931865325
L96939L
tp4725
sL79162L
(F3.011764705882353
L79177L
tp4726
sL101472L
(F8.0
L101522L
tp4727
sL98143L
(F0.833299768179241
L98158L
tp4728
sL73568L
(F4.0
L73592L
tp4729
sL47760L
(F0.47058823529411764
L47778L
tp4730
sL77192L
(F1.0
L77197L
tp4731
sL59734L
(F1.0
L59739L
tp4732
sL40934L
(F2.2857142857142856
L40941L
tp4733
sL101197L
(F2.0
L101207L
tp4734
sL29728L
(F1.3333333333333333
L29753L
tp4735
sL16232L
(F6.930626057529611
L16263L
tp4736
sL64114L
(F0.771665410700829
L64119L
tp4737
sL65387L
(F16.0
L65405L
tp4738
sL76432L
(F1.0
L76437L
tp4739
sL98158L
(F1.666599536358482
L98166L
tp4740
sL46397L
(F18.285714285714285
L46400L
tp4741
sL89968L
(F0.27705627705627706
L89977L
tp4742
sL32625L
(F8.0
L32635L
tp4743
sL81782L
(F0.6666666666666666
L81794L
tp4744
sL46416L
(F2.0
L46449L
tp4745
sL89977L
(F0.9014084507042254
L89986L
tp4746
sL102016L
(F0.5
L102025L
tp4747
sL32635L
(F3.2
L32642L
tp4748
sL68576L
(F2.0
L68627L
tp4749
sL66612L
(F0.6828881329339439
L66636L
tp4750
sL98174L
(F0.4166603730418395
L98190L
tp4751
sL73600L
(F1.916873848313785
L73623L
tp4752
sL87360L
(F1.0
L87372L
tp4753
sL89986L
(F1.8028169014084507
L90001L
tp4754
sL32184L
(F1.8796561604584527
L32228L
tp4755
sL77466L
(F1.3333333333333333
L77476L
tp4756
sL13633L
(F1.9749276759884282
L13640L
tp4757
sL47460L
(F2.2857142857142856
L47467L
tp4758
sL38352L
(F10.666666666666666
L38352L
tp4759
sL35232L
(F0.7398843930635838
L35250L
tp4760
sL98190L
(F0.833320746083679
L98204L
tp4761
sL40941L
(F0.6530612244897959
L40945L
tp4762
sL40848L
(F1.0
L40853L
tp4763
sL90001L
(F3.6056338028169015
L90021L
tp4764
sL57234L
(F14.75371454299865
L57245L
tp4765
sL40368L
(F1.0
L40382L
tp4766
sL100653L
(F28.248275862068965
L100656L
tp4767
sL73623L
(F0.3761317478870782
L73640L
tp4768
sL40856L
(F1.6
L40864L
tp4769
sL32667L
(F16.0
L32674L
tp4770
sL98204L
(F1.666641492167358
L98219L
tp4771
sL70920L
(F2.169491525423729
L70942L
tp4772
sL75077L
(F4.394080887552578
L75085L
tp4773
sL57248L
(F7.6992481203007515
L57311L
tp4774
sL90096L
(F0.9014084507042254
L90110L
tp4775
sL32674L
(F32.0
L32687L
tp4776
sL48552L
(F2.6666666666666665
L48570L
tp4777
sL90021L
(F7.211267605633803
L90025L
tp4778
sL81830L
(F1.7777777777777777
L81840L
tp4779
sL73640L
(F0.7522634957741564
L73648L
tp4780
sL90025L
(F1.7564322469982847
L90064L
tp4781
sL40096L
(F256.0
L40118L
tp4782
sL98223L
(F0.9090834191058059
L98240L
tp4783
sL81840L
(F1.7777777777777777
L81845L
tp4784
sL2241864L
(F1.0
L2241872L
tp4785
sL83176L
(F0.6559897501601537
L83195L
tp4786
sL49075L
(F2.0
L49116L
tp4787
sL81845L
(F1.7777777777777777
L81852L
tp4788
sL46409L
(F6.564102564102564
L46411L
tp4789
sL53190L
(F4.571428571428571
L53195L
tp4790
sL57332L
(F12.8
L57347L
tp4791
sL29296L
(F2.6666666666666665
L29304L
tp4792
sL81852L
(F1.3333333333333333
L81861L
tp4793
sL62192L
(F7.132781889420984
L62208L
tp4794
sL40915L
(F0.5714285714285714
L40928L
tp4795
sL98240L
(F0.833299768179241
L98245L
tp4796
sL76448L
(F1.0
L76453L
tp4797
sL39824L
(F1.8823529411764706
L39834L
tp4798
sL40899L
(F2.0
L40904L
tp4799
sL28640L
(F2.0
L28640L
tp4800
sL42552L
(F7.111111111111111
L42568L
tp4801
sL65480L
(F15.515151515151516
L65490L
tp4802
sL91468L
(F1.0
L91496L
tp4803
sL93138L
(F4.0
L93143L
tp4804
sL73675L
(F0.21225041242815224
L73682L
tp4805
sL98253L
(F0.5262443889765557
L98274L
tp4806
sL93832L
(F8.427983539094651
L93845L
tp4807
sL75085L
(F5.85877451673677
L75094L
tp4808
sL90064L
(F3.5128644939965694
L90090L
tp4809
sL73682L
(F0.17863061932246083
L73694L
tp4810
sL16339L
(F2.0
L16351L
tp4811
sL87016L
(F1.3333333333333333
L87019L
tp4812
sL84561L
(F2.0
L84581L
tp4813
sL31914L
(F62.476190476190474
L31923L
tp4814
sL32728L
(F6.4
L32733L
tp4815
sL49116L
(F4.0
L49130L
tp4816
sL103656L
(F2.0
L103688L
tp4817
sL51009L
(F0.6037735849056604
L51029L
tp4818
sL57311L
(F15.398496240601503
L57332L
tp4819
sL16352L
(F1.0
L16361L
tp4820
sL38224L
(F1.0
L38244L
tp4821
sL98274L
(F0.6895938720920523
L98292L
tp4822
sL45051L
(F0.4444444444444444
L45069L
tp4823
sL96073L
(F3.432105453084457
L96081L
tp4824
sL23206L
(F94.70520231213872
L23245L
tp4825
sL65510L
(F3.878787878787879
L65557L
tp4826
sL90192L
(F3.5128644939965694
L90214L
tp4827
sL16361L
(F2.0
L16386L
tp4828
sL90090L
(F7.025728987993139
L90096L
tp4829
sL61648L
(F2.2901873077998323
L61658L
tp4830
sL24557L
(F94.70520231213872
L24572L
tp4831
sL85608L
(F21.333333333333332
L85635L
tp4832
sL50464L
(F3.878787878787879
L50473L
tp4833
sL73712L
(F0.30311552473521713
L73721L
tp4834
sL40945L
(F1.3061224489795917
L40950L
tp4835
sL49138L
(F0.8888888888888888
L49155L
tp4836
sL98292L
(F0.8162835856384805
L98303L
tp4837
sL40950L
(F2.6122448979591835
L40955L
tp4838
sL73105L
(F2.7629005059021923
L73115L
tp4839
sL73721L
(F0.6062310494704343
L73779L
tp4840
sL40955L
(F4.063492063492063
L40969L
tp4841
sL24572L
(F47.35260115606936
L24613L
tp4842
sL90110L
(F0.6564102564102564
L90129L
tp4843
sL98303L
(F0.6450808245740013
L98312L
tp4844
s.