(dp0
L10347520L
(F1.0
L10347528L
tp1
sL10348032L
(F1.0
L10348040L
tp2
sL10349488L
(F1.0
L10349496L
tp3
sL10348640L
(F1.0
L10348648L
tp4
sL10349096L
(F1.0
L10349104L
tp5
sL10347528L
(F1.0
L10347536L
tp6
sL10347664L
(F1.0
L10347672L
tp7
sL10348704L
(F1.0
L10348712L
tp8
sL10349352L
(F1.0
L10349360L
tp9
sL10347536L
(F1.0
L10347544L
tp10
sL10347608L
(F1.0
L10347616L
tp11
sL10347920L
(F1.0
L10347928L
tp12
sL10348960L
(F1.0
L10348968L
tp13
sL10347968L
(F1.0
L10347976L
tp14
sL10348568L
(F1.0
L10348576L
tp15
sL10348176L
(F1.0
L10348184L
tp16
sL10348824L
(F1.0
L10348832L
tp17
sL10347552L
(F1.0
L10347560L
tp18
sL10347696L
(F1.0
L10347704L
tp19
sL10347808L
(F1.0
L10347816L
tp20
sL10349080L
(F1.0
L10349088L
tp21
sL10349608L
(F1.0
L10349616L
tp22
sL10349728L
(F1.0
L10349736L
tp23
sL10349336L
(F1.0
L10349344L
tp24
sL10347568L
(F1.0
L10347576L
tp25
sL10348552L
(F1.0
L10348560L
tp26
sL10347904L
(F1.0
L10347912L
tp27
sL10347512L
(F1.0
L10347520L
tp28
sL10349592L
(F1.0
L10349600L
tp29
sL10347576L
(F1.0
L10347584L
tp30
sL10349200L
(F1.0
L10349208L
tp31
sL10347768L
(F1.0
L10347776L
tp32
sL10348808L
(F1.0
L10348816L
tp33
sL10349632L
(F1.0
L10349640L
tp34
sL10347616L
(F1.0
L10347624L
tp35
sL10349456L
(F1.0
L10349464L
tp36
sL10348024L
(F1.0
L10348032L
tp37
sL10349064L
(F1.0
L10349072L
tp38
sL10348616L
(F1.0
L10348624L
tp39
sL10349712L
(F1.0
L10349720L
tp40
sL10349320L
(F1.0
L10349328L
tp41
sL10347600L
(F1.0
L10347608L
tp42
sL10348216L
(F1.0
L10348224L
tp43
sL10348928L
(F1.0
L10348936L
tp44
sL10348040L
(F1.0
L10348048L
tp45
sL10347496L
(F1.0
L10347504L
tp46
sL10349576L
(F1.0
L10349584L
tp47
sL10349656L
(F1.0
L10349664L
tp48
sL10348144L
(F1.0
L10348152L
tp49
sL10349184L
(F1.0
L10349192L
tp50
sL10348792L
(F1.0
L10348800L
tp51
sL10349832L
(F1.0
L10349840L
tp52
sL10347880L
(F1.0
L10347888L
tp53
sL10348128L
(F1.0
L10348136L
tp54
sL10348048L
(F1.0
L10348056L
tp55
sL10349440L
(F1.0
L10349448L
tp56
sL10349752L
(F1.0
L10349760L
tp57
sL10347984L
(F1.0
L10347992L
tp58
sL10349048L
(F1.0
L10349056L
tp59
sL10348136L
(F1.0
L10348144L
tp60
sL10349696L
(F1.0
L10349704L
tp61
sL10347632L
(F1.0
L10347640L
tp62
sL10347624L
(F1.0
L10347632L
tp63
sL10347488L
(F1.0
L10347496L
tp64
sL10347480L
(F1.0
L10347488L
tp65
sL10349560L
(F1.0
L10349568L
tp66
sL10348736L
(F1.0
L10348744L
tp67
sL10347640L
(F1.0
L10347648L
tp68
sL10349168L
(F1.0
L10349176L
tp69
sL10348008L
(F1.0
L10348016L
tp70
sL10347736L
(F1.0
L10347744L
tp71
sL10348776L
(F1.0
L10348784L
tp72
sL10348672L
(F1.0
L10348680L
tp73
sL10349424L
(F1.0
L10349432L
tp74
sL10347992L
(F1.0
L10348000L
tp75
sL10347720L
(F1.0
L10347728L
tp76
sL10347888L
(F1.0
L10347896L
tp77
sL10347656L
(F1.0
L10347664L
tp78
sL10349680L
(F1.0
L10349688L
tp79
sL10349384L
(F1.0
L10349392L
tp80
sL10349288L
(F1.0
L10349296L
tp81
sL10348688L
(F1.0
L10348696L
tp82
sL10348056L
(F1.0
L10348064L
tp83
sL10349544L
(F1.0
L10349552L
tp84
sL10348096L
(F1.0
L10348104L
tp85
sL10347672L
(F1.0
L10347680L
tp86
sL10349152L
(F1.0
L10349160L
tp87
sL10348760L
(F1.0
L10348768L
tp88
sL10349800L
(F1.0
L10349808L
tp89
sL10349216L
(F1.0
L10349224L
tp90
sL10348656L
(F1.0
L10348664L
tp91
sL10347976L
(F1.0
L10347984L
tp92
sL10349016L
(F1.0
L10349024L
tp93
sL10347688L
(F1.0
L10347696L
tp94
sL10349664L
(F1.0
L10349672L
tp95
sL10349272L
(F1.0
L10349280L
tp96
sL10347856L
(F1.0
L10347864L
tp97
sL10348392L
(F1.0
L10348400L
tp98
sL10348208L
(F1.0
L10348216L
tp99
sL10348488L
(F1.0
L10348496L
tp100
sL10349848L
(F1.0
L10349856L
tp101
sL10349640L
(F1.0
L10349648L
tp102
sL10349240L
(F1.0
L10349248L
tp103
sL10348584L
(F1.0
L10348592L
tp104
sL10347704L
(F1.0
L10347712L
tp105
sL10348744L
(F1.0
L10348752L
tp106
sL10347712L
(F1.0
L10347720L
tp107
sL10348064L
(F1.0
L10348072L
tp108
sL10347960L
(F1.0
L10347968L
tp109
sL10349000L
(F1.0
L10349008L
tp110
sL10348832L
(F1.0
L10348840L
tp111
sL10348232L
(F1.0
L10348240L
tp112
sL10348896L
(F1.0
L10348904L
tp113
sL10347824L
(F1.0
L10347832L
tp114
sL10349264L
(F1.0
L10349272L
tp115
sL10348152L
(F1.0
L10348160L
tp116
sL10348472L
(F1.0
L10348480L
tp117
sL10349512L
(F1.0
L10349520L
tp118
sL10348856L
(F1.0
L10348864L
tp119
sL10348080L
(F1.0
L10348088L
tp120
sL10348248L
(F1.0
L10348256L
tp121
sL10348720L
(F1.0
L10348728L
tp122
sL10348728L
(F1.0
L10348736L
tp123
sL10349768L
(F1.0
L10349776L
tp124
sL10349192L
(F1.0
L10349200L
tp125
sL10348336L
(F1.0
L10348344L
tp126
sL10347744L
(F1.0
L10347752L
tp127
sL10347728L
(F1.0
L10347736L
tp128
sL10348984L
(F1.0
L10348992L
tp129
sL10348592L
(F1.0
L10348600L
tp130
sL10348264L
(F1.0
L10348272L
tp131
sL10347840L
(F1.0
L10347848L
tp132
sL10348880L
(F1.0
L10348888L
tp133
sL10348848L
(F1.0
L10348856L
tp134
sL10349296L
(F1.0
L10349304L
tp135
sL10347560L
(F1.0
L10347568L
tp136
sL10349104L
(F1.0
L10349112L
tp137
sL10349304L
(F1.0
L10349312L
tp138
sL10347864L
(F1.0
L10347872L
tp139
sL10348712L
(F1.0
L10348720L
tp140
sL10349112L
(F1.0
L10349120L
tp141
sL10349432L
(F1.0
L10349440L
tp142
sL10347776L
(F1.0
L10347784L
tp143
sL10347648L
(F1.0
L10347656L
tp144
sL10347928L
(F1.0
L10347936L
tp145
sL10348968L
(F1.0
L10348976L
tp146
sL10349784L
(F1.0
L10349792L
tp147
sL10348576L
(F1.0
L10348584L
tp148
sL10348296L
(F1.0
L10348304L
tp149
sL10348184L
(F1.0
L10348192L
tp150
sL10349224L
(F1.0
L10349232L
tp151
sL10347792L
(F1.0
L10347800L
tp152
sL10349872L
(F1.0
L10349880L
tp153
sL10349840L
(F1.0
L10349848L
tp154
sL10348504L
(F1.0
L10348512L
tp155
sL10348440L
(F1.0
L10348448L
tp156
sL10349136L
(F1.0
L10349144L
tp157
sL10349088L
(F1.0
L10349096L
tp158
sL10348312L
(F1.0
L10348320L
tp159
sL10348696L
(F1.0
L10348704L
tp160
sL10349736L
(F1.0
L10349744L
tp161
sL10348920L
(F1.0
L10348928L
tp162
sL10348304L
(F1.0
L10348312L
tp163
sL10349344L
(F1.0
L10349352L
tp164
sL10348320L
(F1.0
L10348328L
tp165
sL10349616L
(F1.0
L10349624L
tp166
sL10348952L
(F1.0
L10348960L
tp167
sL10347912L
(F1.0
L10347920L
tp168
sL10348560L
(F1.0
L10348568L
tp169
sL10349600L
(F1.0
L10349608L
tp170
sL10349864L
(F1.0
L10349872L
tp171
sL10349208L
(F1.0
L10349216L
tp172
sL10348816L
(F1.0
L10348824L
tp173
sL10349856L
(F1.0
L10349864L
tp174
sL10349360L
(F1.0
L10349368L
tp175
sL10348168L
(F1.0
L10348176L
tp176
sL10348424L
(F1.0
L10348432L
tp177
sL10349072L
(F1.0
L10349080L
tp178
sL10348384L
(F1.0
L10348392L
tp179
sL10349880L
(F1.0
L10349888L
tp180
sL10348680L
(F1.0
L10348688L
tp181
sL10349392L
(F1.0
L10349400L
tp182
sL10348768L
(F1.0
L10348776L
tp183
sL10349328L
(F1.0
L10349336L
tp184
sL10348352L
(F1.0
L10348360L
tp185
sL10347896L
(F1.0
L10347904L
tp186
sL10348936L
(F1.0
L10348944L
tp187
sL10347504L
(F1.0
L10347512L
tp188
sL10349584L
(F1.0
L10349592L
tp189
sL10348872L
(F1.0
L10348880L
tp190
sL10348376L
(F1.0
L10348384L
tp191
sL10347752L
(F1.0
L10347760L
tp192
sL10348800L
(F1.0
L10348808L
tp193
sL10348368L
(F1.0
L10348376L
tp194
sL10349368L
(F1.0
L10349376L
tp195
sL10349448L
(F1.0
L10349456L
tp196
sL10348016L
(F1.0
L10348024L
tp197
sL10349056L
(F1.0
L10349064L
tp198
sL10349400L
(F1.0
L10349408L
tp199
sL10348664L
(F1.0
L10348672L
tp200
sL10349704L
(F1.0
L10349712L
tp201
sL10348200L
(F1.0
L10348208L
tp202
sL10348272L
(F1.0
L10348280L
tp203
sL10349312L
(F1.0
L10349320L
tp204
sL10348400L
(F1.0
L10348408L
tp205
sL10349408L
(F1.0
L10349416L
tp206
sL10348944L
(F1.0
L10348952L
tp207
sL10349232L
(F1.0
L10349240L
tp208
sL10348608L
(F1.0
L10348616L
tp209
sL10349648L
(F1.0
L10349656L
tp210
sL10348528L
(F1.0
L10348536L
tp211
sL10349568L
(F1.0
L10349576L
tp212
sL10348904L
(F1.0
L10348912L
tp213
sL10349176L
(F1.0
L10349184L
tp214
sL10348784L
(F1.0
L10348792L
tp215
sL10349824L
(F1.0
L10349832L
tp216
sL10348912L
(F1.0
L10348920L
tp217
sL10348520L
(F1.0
L10348528L
tp218
sL10348160L
(F1.0
L10348168L
tp219
sL10348632L
(F1.0
L10348640L
tp220
sL10348648L
(F1.0
L10348656L
tp221
sL10349040L
(F1.0
L10349048L
tp222
sL10348112L
(F1.0
L10348120L
tp223
sL10349256L
(F1.0
L10349264L
tp224
sL10348408L
(F1.0
L10348416L
tp225
sL10349688L
(F1.0
L10349696L
tp226
sL10348256L
(F1.0
L10348264L
tp227
sL10348416L
(F1.0
L10348424L
tp228
sL10347584L
(F1.0
L10347592L
tp229
sL10347472L
(F1.0
L10347480L
tp230
sL10348512L
(F1.0
L10348520L
tp231
sL10348120L
(F1.0
L10348128L
tp232
sL10349160L
(F1.0
L10349168L
tp233
sL10348864L
(F1.0
L10348872L
tp234
sL10347784L
(F1.0
L10347792L
tp235
sL10349808L
(F1.0
L10349816L
tp236
sL10348432L
(F1.0
L10348440L
tp237
sL10349464L
(F1.0
L10349472L
tp238
sL10349776L
(F1.0
L10349784L
tp239
sL10349024L
(F1.0
L10349032L
tp240
sL10347592L
(F1.0
L10347600L
tp241
sL10349672L
(F1.0
L10349680L
tp242
sL10347848L
(F1.0
L10347856L
tp243
sL10348888L
(F1.0
L10348896L
tp244
sL10348240L
(F1.0
L10348248L
tp245
sL10349280L
(F1.0
L10349288L
tp246
sL10349720L
(F1.0
L10349728L
tp247
sL10348448L
(F1.0
L10348456L
tp248
sL10347760L
(F1.0
L10347768L
tp249
sL10348496L
(F1.0
L10348504L
tp250
sL10349536L
(F1.0
L10349544L
tp251
sL10349480L
(F1.0
L10349488L
tp252
sL10348752L
(F1.0
L10348760L
tp253
sL10349792L
(F1.0
L10349800L
tp254
sL10347872L
(F1.0
L10347880L
tp255
sL10348288L
(F1.0
L10348296L
tp256
sL10349128L
(F1.0
L10349136L
tp257
sL10349120L
(F1.0
L10349128L
tp258
sL10349008L
(F1.0
L10349016L
tp259
sL10349496L
(F1.0
L10349504L
tp260
sL10349744L
(F1.0
L10349752L
tp261
sL10348224L
(F1.0
L10348232L
tp262
sL10347832L
(F1.0
L10347840L
tp263
sL10347456L
(F1.0
L10347464L
tp264
sL10349472L
(F1.0
L10349480L
tp265
sL10348104L
(F1.0
L10348112L
tp266
sL10349144L
(F1.0
L10349152L
tp267
sL10348480L
(F1.0
L10348488L
tp268
sL10348088L
(F1.0
L10348096L
tp269
sL10347464L
(F1.0
L10347472L
tp270
sL10349416L
(F1.0
L10349424L
tp271
sL10348344L
(F1.0
L10348352L
tp272
sL10349520L
(F1.0
L10349528L
tp273
sL10348280L
(F1.0
L10348288L
tp274
sL10347952L
(F1.0
L10347960L
tp275
sL10348992L
(F1.0
L10349000L
tp276
sL10348600L
(F1.0
L10348608L
tp277
sL10349528L
(F1.0
L10349536L
tp278
sL10348544L
(F1.0
L10348552L
tp279
sL10349376L
(F1.0
L10349384L
tp280
sL10349248L
(F1.0
L10349256L
tp281
sL10347816L
(F1.0
L10347824L
tp282
sL10348000L
(F1.0
L10348008L
tp283
sL10348624L
(F1.0
L10348632L
tp284
sL10348464L
(F1.0
L10348472L
tp285
sL10349504L
(F1.0
L10349512L
tp286
sL10348976L
(F1.0
L10348984L
tp287
sL10348072L
(F1.0
L10348080L
tp288
sL10349032L
(F1.0
L10349040L
tp289
sL10347944L
(F1.0
L10347952L
tp290
sL10348360L
(F1.0
L10348368L
tp291
sL10347680L
(F1.0
L10347688L
tp292
sL10349760L
(F1.0
L10349768L
tp293
sL10349816L
(F1.0
L10349824L
tp294
sL10348328L
(F1.0
L10348336L
tp295
sL10349552L
(F1.0
L10349560L
tp296
sL10348456L
(F1.0
L10348464L
tp297
sL10347936L
(F1.0
L10347944L
tp298
sL10347544L
(F1.0
L10347552L
tp299
sL10349624L
(F1.0
L10349632L
tp300
sL10348536L
(F1.0
L10348544L
tp301
sL10348192L
(F1.0
L10348200L
tp302
sL10347800L
(F1.0
L10347808L
tp303
sL10348840L
(F1.0
L10348848L
tp304
s.