(dp0
L2282496L
(F1.0
L2282504L
tp1
sL2282624L
(F1.0
L2282632L
tp2
sL2282504L
(F1.0
L2282512L
tp3
sL2282640L
(F1.0
L2282648L
tp4
sL2282512L
(F1.0
L2282520L
tp5
sL2282648L
(F1.0
L2282656L
tp6
sL2282520L
(F1.0
L2282528L
tp7
sL2282760L
(F1.0
L2282768L
tp8
sL2282528L
(F1.0
L2282536L
tp9
sL2282672L
(F1.0
L2282680L
tp10
sL2282536L
(F1.0
L2282544L
tp11
sL2282688L
(F1.0
L2282696L
tp12
sL2282752L
(F1.0
L2282760L
tp13
sL2282544L
(F1.0
L2282552L
tp14
sL2282632L
(F1.0
L2282640L
tp15
sL2282488L
(F1.0
L2282496L
tp16
sL2282552L
(F1.0
L2282560L
tp17
sL2282616L
(F1.0
L2282624L
tp18
sL2282560L
(F1.0
L2282568L
tp19
sL2282464L
(F1.0
L2282472L
tp20
sL2282480L
(F1.0
L2282488L
tp21
sL2282696L
(F1.0
L2282704L
tp22
sL2282736L
(F1.0
L2282744L
tp23
sL2282704L
(F1.0
L2282712L
tp24
sL2282680L
(F1.0
L2282688L
tp25
sL2282472L
(F1.0
L2282480L
tp26
sL2282584L
(F1.0
L2282592L
tp27
sL2282600L
(F1.0
L2282608L
tp28
sL2282576L
(F1.0
L2282584L
tp29
sL2282568L
(F1.0
L2282576L
tp30
sL2282592L
(F1.0
L2282600L
tp31
sL2282768L
(F1.0
L2282776L
tp32
sL2282728L
(F1.0
L2282736L
tp33
sL2282656L
(F1.0
L2282664L
tp34
sL2282720L
(F1.0
L2282728L
tp35
sL2282608L
(F1.0
L2282616L
tp36
sL2282664L
(F1.0
L2282672L
tp37
sL2282744L
(F1.0
L2282752L
tp38
sL2282712L
(F1.0
L2282720L
tp39
sL2282776L
(F1.0
L2282784L
tp40
s.