(dp0
L2593664L
(F1.0
L2593672L
tp1
sL2593920L
(F1.0
L2593928L
tp2
sL2593680L
(F1.0
L2593688L
tp3
sL2593576L
(F1.0
L2593584L
tp4
sL2593600L
(F1.0
L2593608L
tp5
sL2594120L
(F1.0
L2594128L
tp6
sL2593544L
(F1.0
L2593552L
tp7
sL2593936L
(F1.0
L2593944L
tp8
sL2593872L
(F1.0
L2593880L
tp9
sL2593808L
(F1.0
L2593816L
tp10
sL2593560L
(F1.0
L2593568L
tp11
sL2593672L
(F1.0
L2593680L
tp12
sL2593624L
(F1.0
L2593632L
tp13
sL2593800L
(F1.0
L2593808L
tp14
sL2593688L
(F1.0
L2593696L
tp15
sL2593928L
(F1.0
L2593936L
tp16
sL2593944L
(F1.0
L2593952L
tp17
sL2593992L
(F1.0
L2594000L
tp18
sL2593568L
(F1.0
L2593576L
tp19
sL2593584L
(F1.0
L2593592L
tp20
sL2593792L
(F1.0
L2593800L
tp21
sL2593704L
(F1.0
L2593712L
tp22
sL2593648L
(F1.0
L2593656L
tp23
sL2593984L
(F1.0
L2593992L
tp24
sL2593856L
(F1.0
L2593864L
tp25
sL2593712L
(F1.0
L2593720L
tp26
sL2594056L
(F1.0
L2594064L
tp27
sL2593720L
(F1.0
L2593728L
tp28
sL2593608L
(F1.0
L2593616L
tp29
sL2594128L
(F1.0
L2594136L
tp30
sL2593848L
(F1.0
L2593856L
tp31
sL2593912L
(F1.0
L2593920L
tp32
sL2593976L
(F1.0
L2593984L
tp33
sL2594040L
(F1.0
L2594048L
tp34
sL2594104L
(F1.0
L2594112L
tp35
sL2593728L
(F1.0
L2593736L
tp36
sL2593696L
(F1.0
L2593704L
tp37
sL2593760L
(F1.0
L2593768L
tp38
sL2593840L
(F1.0
L2593848L
tp39
sL2593736L
(F1.0
L2593744L
tp40
sL2593904L
(F1.0
L2593912L
tp41
sL2593968L
(F1.0
L2593976L
tp42
sL2594048L
(F1.0
L2594056L
tp43
sL2594032L
(F1.0
L2594040L
tp44
sL2594096L
(F1.0
L2594104L
tp45
sL2593744L
(F1.0
L2593752L
tp46
sL2593592L
(F1.0
L2593600L
tp47
sL2594112L
(F1.0
L2594120L
tp48
sL2593832L
(F1.0
L2593840L
tp49
sL2593880L
(F1.0
L2593888L
tp50
sL2593896L
(F1.0
L2593904L
tp51
sL2593656L
(F1.0
L2593664L
tp52
sL2593960L
(F1.0
L2593968L
tp53
sL2594072L
(F1.0
L2594080L
tp54
sL2594024L
(F1.0
L2594032L
tp55
sL2593864L
(F1.0
L2593872L
tp56
sL2594064L
(F1.0
L2594072L
tp57
sL2593632L
(F1.0
L2593640L
tp58
sL2594000L
(F1.0
L2594008L
tp59
sL2593616L
(F1.0
L2593624L
tp60
sL2594136L
(F1.0
L2594144L
tp61
sL2593824L
(F1.0
L2593832L
tp62
sL2593768L
(F1.0
L2593776L
tp63
sL2593888L
(F1.0
L2593896L
tp64
sL2593952L
(F1.0
L2593960L
tp65
sL2594016L
(F1.0
L2594024L
tp66
sL2594080L
(F1.0
L2594088L
tp67
sL2593776L
(F1.0
L2593784L
tp68
sL2594088L
(F1.0
L2594096L
tp69
sL2593752L
(F1.0
L2593760L
tp70
sL2593816L
(F1.0
L2593824L
tp71
sL2593784L
(F1.0
L2593792L
tp72
sL2593640L
(F1.0
L2593648L
tp73
sL2594008L
(F1.0
L2594016L
tp74
sL2593552L
(F1.0
L2593560L
tp75
s.