(dp0
L2192384L
(F1.0
L2192392L
tp1
sL2192512L
(F1.0
L2192520L
tp2
sL2192792L
(F1.0
L2192800L
tp3
sL2192464L
(F1.0
L2192472L
tp4
sL2192776L
(F1.0
L2192784L
tp5
sL2192528L
(F1.0
L2192536L
tp6
sL2192592L
(F1.0
L2192600L
tp7
sL2192400L
(F1.0
L2192408L
tp8
sL2192408L
(F1.0
L2192416L
tp9
sL2192784L
(F1.0
L2192792L
tp10
sL2192392L
(F1.0
L2192400L
tp11
sL2192536L
(F1.0
L2192544L
tp12
sL2192648L
(F1.0
L2192656L
tp13
sL2192416L
(F1.0
L2192424L
tp14
sL2192560L
(F1.0
L2192568L
tp15
sL2192448L
(F1.0
L2192456L
tp16
sL2192424L
(F1.0
L2192432L
tp17
sL2192640L
(F1.0
L2192648L
tp18
sL2192432L
(F1.0
L2192440L
tp19
sL2192520L
(F1.0
L2192528L
tp20
sL2192768L
(F1.0
L2192776L
tp21
sL2192376L
(F1.0
L2192384L
tp22
sL2192440L
(F1.0
L2192448L
tp23
sL2192504L
(F1.0
L2192512L
tp24
sL2192632L
(F1.0
L2192640L
tp25
sL2192696L
(F1.0
L2192704L
tp26
sL2192576L
(F1.0
L2192584L
tp27
sL2192800L
(F1.0
L2192808L
tp28
sL2192584L
(F1.0
L2192592L
tp29
sL2192496L
(F1.0
L2192504L
tp30
sL2192624L
(F1.0
L2192632L
tp31
sL2192704L
(F1.0
L2192712L
tp32
sL2192688L
(F1.0
L2192696L
tp33
sL2192720L
(F1.0
L2192728L
tp34
sL2192568L
(F1.0
L2192576L
tp35
sL2192664L
(F1.0
L2192672L
tp36
sL2192360L
(F1.0
L2192368L
tp37
sL2192456L
(F1.0
L2192464L
tp38
sL2192472L
(F1.0
L2192480L
tp39
sL2192488L
(F1.0
L2192496L
tp40
sL2192616L
(F1.0
L2192624L
tp41
sL2192728L
(F1.0
L2192736L
tp42
sL2192680L
(F1.0
L2192688L
tp43
sL2192736L
(F1.0
L2192744L
tp44
sL2192656L
(F1.0
L2192664L
tp45
sL2192352L
(F1.0
L2192360L
tp46
sL2192744L
(F1.0
L2192752L
tp47
sL2192480L
(F1.0
L2192488L
tp48
sL2192544L
(F1.0
L2192552L
tp49
sL2192608L
(F1.0
L2192616L
tp50
sL2192672L
(F1.0
L2192680L
tp51
sL2192368L
(F1.0
L2192376L
tp52
sL2192552L
(F1.0
L2192560L
tp53
sL2192752L
(F1.0
L2192760L
tp54
sL2192760L
(F1.0
L2192768L
tp55
sL2192600L
(F1.0
L2192608L
tp56
sL2192712L
(F1.0
L2192720L
tp57
s.