(dp0
L2983936L
(F1.0
L2983944L
tp1
sL2984448L
(F1.0
L2984456L
tp2
sL2983944L
(F1.0
L2983952L
tp3
sL2983952L
(F1.0
L2983960L
tp4
sL2984472L
(F1.0
L2984480L
tp5
sL2984480L
(F1.0
L2984488L
tp6
sL2983856L
(F1.0
L2983864L
tp7
sL2984488L
(F1.0
L2984496L
tp8
sL2983984L
(F1.0
L2983992L
tp9
sL2984456L
(F1.0
L2984464L
tp10
sL2983992L
(F1.0
L2984000L
tp11
sL2984000L
(F1.0
L2984008L
tp12
sL2984008L
(F1.0
L2984016L
tp13
sL2984016L
(F1.0
L2984024L
tp14
sL2984376L
(F1.0
L2984384L
tp15
sL2984024L
(F1.0
L2984032L
tp16
sL2984032L
(F1.0
L2984040L
tp17
sL2984464L
(F1.0
L2984472L
tp18
sL2984040L
(F1.0
L2984048L
tp19
sL2984048L
(F1.0
L2984056L
tp20
sL2983784L
(F1.0
L2983792L
tp21
sL2984056L
(F1.0
L2984064L
tp22
sL2984064L
(F1.0
L2984072L
tp23
sL2984384L
(F1.0
L2984392L
tp24
sL2984072L
(F1.0
L2984080L
tp25
sL2984080L
(F1.0
L2984088L
tp26
sL2983960L
(F1.0
L2983968L
tp27
sL2984088L
(F1.0
L2984096L
tp28
sL2984096L
(F1.0
L2984104L
tp29
sL2984304L
(F1.0
L2984312L
tp30
sL2984104L
(F1.0
L2984112L
tp31
sL2984112L
(F1.0
L2984120L
tp32
sL2984392L
(F1.0
L2984400L
tp33
sL2984120L
(F1.0
L2984128L
tp34
sL2984128L
(F1.0
L2984136L
tp35
sL2983968L
(F1.0
L2983976L
tp36
sL15248L
(F1.0
L15267L
tp37
sL2984136L
(F1.0
L2984144L
tp38
sL2984144L
(F1.0
L2984152L
tp39
sL2983800L
(F1.0
L2983808L
tp40
sL2984152L
(F1.0
L2984160L
tp41
sL2984160L
(F1.0
L2984168L
tp42
sL2984400L
(F1.0
L2984408L
tp43
sL2984168L
(F1.0
L2984176L
tp44
sL2984176L
(F1.0
L2984184L
tp45
sL2983976L
(F1.0
L2983984L
tp46
sL2984184L
(F1.0
L2984192L
tp47
sL2984192L
(F1.0
L2984200L
tp48
sL2984320L
(F1.0
L2984328L
tp49
sL2984200L
(F1.0
L2984208L
tp50
sL2984208L
(F1.0
L2984216L
tp51
sL2984408L
(F1.0
L2984416L
tp52
sL2984216L
(F1.0
L2984224L
tp53
sL2984224L
(F1.0
L2984232L
tp54
sL2984496L
(F1.0
L2984504L
tp55
sL2984232L
(F1.0
L2984240L
tp56
sL2984240L
(F1.0
L2984248L
tp57
sL2983816L
(F1.0
L2983824L
tp58
sL2984248L
(F1.0
L2984256L
tp59
sL2984256L
(F1.0
L2984264L
tp60
sL2984416L
(F1.0
L2984424L
tp61
sL2984264L
(F1.0
L2984272L
tp62
sL2984272L
(F1.0
L2984280L
tp63
sL2984504L
(F1.0
L2984512L
tp64
sL2984280L
(F1.0
L2984288L
tp65
sL2984288L
(F1.0
L2984296L
tp66
sL2984336L
(F1.0
L2984344L
tp67
sL2984296L
(F1.0
L2984304L
tp68
sL2983792L
(F1.0
L2983800L
tp69
sL2984424L
(F1.0
L2984432L
tp70
sL2984312L
(F1.0
L2984320L
tp71
sL2983808L
(F1.0
L2983816L
tp72
sL2984512L
(F1.0
L2984520L
tp73
sL2984328L
(F1.0
L2984336L
tp74
sL2983824L
(F1.0
L2983832L
tp75
sL2984344L
(F1.0
L2984352L
tp76
sL2983832L
(F1.0
L2983840L
tp77
sL2984352L
(F1.0
L2984360L
tp78
sL2983920L
(F1.0
L2983928L
tp79
sL2983848L
(F1.0
L2983856L
tp80
sL2984368L
(F1.0
L2984376L
tp81
sL2983864L
(F1.0
L2983872L
tp82
sL2983872L
(F1.0
L2983880L
tp83
sL2983840L
(F1.0
L2983848L
tp84
sL2983880L
(F1.0
L2983888L
tp85
sL2983888L
(F1.0
L2983896L
tp86
sL2984440L
(F1.0
L2984448L
tp87
sL2983896L
(F1.0
L2983904L
tp88
sL2983904L
(F1.0
L2983912L
tp89
sL2983912L
(F1.0
L2983920L
tp90
sL2984432L
(F1.0
L2984440L
tp91
sL2984360L
(F1.0
L2984368L
tp92
sL2983928L
(F1.0
L2983936L
tp93
s.