(dp0
L7169024L
(F1.0
L7169032L
tp1
sL7169280L
(F1.0
L7169288L
tp2
sL7169104L
(F1.0
L7169112L
tp3
sL7168976L
(F1.0
L7168984L
tp4
sL7169040L
(F1.0
L7169048L
tp5
sL7168904L
(F1.0
L7168912L
tp6
sL7168912L
(F1.0
L7168920L
tp7
sL7168920L
(F1.0
L7168928L
tp8
sL7168968L
(F1.0
L7168976L
tp9
sL7169032L
(F1.0
L7169040L
tp10
sL7169048L
(F1.0
L7169056L
tp11
sL7169288L
(F1.0
L7169296L
tp12
sL7168928L
(F1.0
L7168936L
tp13
sL7168944L
(F1.0
L7168952L
tp14
sL7168960L
(F1.0
L7168968L
tp15
sL7168936L
(F1.0
L7168944L
tp16
sL7169152L
(F1.0
L7169160L
tp17
sL7169216L
(F1.0
L7169224L
tp18
sL7169072L
(F1.0
L7169080L
tp19
sL7169160L
(F1.0
L7169168L
tp20
sL7169016L
(F1.0
L7169024L
tp21
sL7169080L
(F1.0
L7169088L
tp22
sL7168952L
(F1.0
L7168960L
tp23
sL7169272L
(F1.0
L7169280L
tp24
sL7169088L
(F1.0
L7169096L
tp25
sL7169056L
(F1.0
L7169064L
tp26
sL7169008L
(F1.0
L7169016L
tp27
sL7169224L
(F1.0
L7169232L
tp28
sL7169200L
(F1.0
L7169208L
tp29
sL7169264L
(F1.0
L7169272L
tp30
sL7169232L
(F1.0
L7169240L
tp31
sL7169208L
(F1.0
L7169216L
tp32
sL7169096L
(F1.0
L7169104L
tp33
sL7169000L
(F1.0
L7169008L
tp34
sL7169064L
(F1.0
L7169072L
tp35
sL7169112L
(F1.0
L7169120L
tp36
sL7169256L
(F1.0
L7169264L
tp37
sL7168992L
(F1.0
L7169000L
tp38
sL7169168L
(F1.0
L7169176L
tp39
sL7169128L
(F1.0
L7169136L
tp40
sL7169120L
(F1.0
L7169128L
tp41
sL7169184L
(F1.0
L7169192L
tp42
sL7169248L
(F1.0
L7169256L
tp43
sL7169136L
(F1.0
L7169144L
tp44
sL7169192L
(F1.0
L7169200L
tp45
sL7168984L
(F1.0
L7168992L
tp46
sL7169144L
(F1.0
L7169152L
tp47
sL7169176L
(F1.0
L7169184L
tp48
sL7169240L
(F1.0
L7169248L
tp49
s.