(dp0
L3289728L
(F1.0
L3289736L
tp1
sL3289600L
(F1.0
L3289608L
tp2
sL3289608L
(F1.0
L3289616L
tp3
sL3289864L
(F1.0
L3289872L
tp4
sL3289616L
(F1.0
L3289624L
tp5
sL3289688L
(F1.0
L3289696L
tp6
sL3289624L
(F1.0
L3289632L
tp7
sL3289792L
(F1.0
L3289800L
tp8
sL3289856L
(F1.0
L3289864L
tp9
sL3289760L
(F1.0
L3289768L
tp10
sL3289648L
(F1.0
L3289656L
tp11
sL3289592L
(F1.0
L3289600L
tp12
sL3289640L
(F1.0
L3289648L
tp13
sL3289720L
(F1.0
L3289728L
tp14
sL3289776L
(F1.0
L3289784L
tp15
sL3289672L
(F1.0
L3289680L
tp16
sL3289584L
(F1.0
L3289592L
tp17
sL3289784L
(F1.0
L3289792L
tp18
sL3289840L
(F1.0
L3289848L
tp19
sL3289664L
(F1.0
L3289672L
tp20
sL3289568L
(F1.0
L3289576L
tp21
sL3289576L
(F1.0
L3289584L
tp22
sL3289800L
(F1.0
L3289808L
tp23
sL3289704L
(F1.0
L3289712L
tp24
sL3289552L
(F1.0
L3289560L
tp25
sL3289656L
(F1.0
L3289664L
tp26
sL3289560L
(F1.0
L3289568L
tp27
sL3289696L
(F1.0
L3289704L
tp28
sL3289680L
(F1.0
L3289688L
tp29
sL3289832L
(F1.0
L3289840L
tp30
sL3289752L
(F1.0
L3289760L
tp31
sL3289816L
(F1.0
L3289824L
tp32
sL3289712L
(F1.0
L3289720L
tp33
sL3289768L
(F1.0
L3289776L
tp34
sL3289848L
(F1.0
L3289856L
tp35
sL3289744L
(F1.0
L3289752L
tp36
sL3289808L
(F1.0
L3289816L
tp37
s.