(dp0
L11976704L
(F1.0
L11976712L
tp1
sL11975680L
(F1.0
L11975688L
tp2
sL11976712L
(F1.0
L11976720L
tp3
sL11976312L
(F1.0
L11976320L
tp4
sL11978768L
(F1.0
L11978776L
tp5
sL11977048L
(F1.0
L11977056L
tp6
sL11976176L
(F1.0
L11976184L
tp7
sL11976728L
(F1.0
L11976736L
tp8
sL11978784L
(F1.0
L11978792L
tp9
sL11977392L
(F1.0
L11977400L
tp10
sL11978792L
(F1.0
L11978800L
tp11
sL11977336L
(F1.0
L11977344L
tp12
sL11976752L
(F1.0
L11976760L
tp13
sL11975688L
(F1.0
L11975696L
tp14
sL11976760L
(F1.0
L11976768L
tp15
sL11976528L
(F1.0
L11976536L
tp16
sL11976768L
(F1.0
L11976776L
tp17
sL11979104L
(F1.0
L11979112L
tp18
sL11976776L
(F1.0
L11976784L
tp19
sL11976784L
(F1.0
L11976792L
tp20
sL11975352L
(F1.0
L11975360L
tp21
sL11976792L
(F1.0
L11976800L
tp22
sL11976800L
(F1.0
L11976808L
tp23
sL11975696L
(F1.0
L11975704L
tp24
sL11976656L
(F1.0
L11976664L
tp25
sL11976808L
(F1.0
L11976816L
tp26
sL11977952L
(F1.0
L11977960L
tp27
sL11976816L
(F1.0
L11976824L
tp28
sL11979112L
(F1.0
L11979120L
tp29
sL11976824L
(F1.0
L11976832L
tp30
sL11976384L
(F1.0
L11976392L
tp31
sL11974952L
(F1.0
L11974960L
tp32
sL11978880L
(F1.0
L11978888L
tp33
sL11979456L
(F1.0
L11979464L
tp34
sL11977680L
(F1.0
L11977688L
tp35
sL11976248L
(F1.0
L11976256L
tp36
sL11976840L
(F1.0
L11976848L
tp37
sL11976848L
(F1.0
L11976856L
tp38
sL11978776L
(F1.0
L11978784L
tp39
sL11976112L
(F1.0
L11976120L
tp40
sL11978904L
(F1.0
L11978912L
tp41
sL11977408L
(F1.0
L11977416L
tp42
sL11975976L
(F1.0
L11975984L
tp43
sL11978912L
(F1.0
L11978920L
tp44
sL11977072L
(F1.0
L11977080L
tp45
sL11977272L
(F1.0
L11977280L
tp46
sL11976872L
(F1.0
L11976880L
tp47
sL11975840L
(F1.0
L11975848L
tp48
sL11976880L
(F1.0
L11976888L
tp49
sL11975368L
(F1.0
L11975376L
tp50
sL11975704L
(F1.0
L11975712L
tp51
sL11976888L
(F1.0
L11976896L
tp52
sL11976896L
(F1.0
L11976904L
tp53
sL11976736L
(F1.0
L11976744L
tp54
sL11976904L
(F1.0
L11976912L
tp55
sL11976520L
(F1.0
L11976528L
tp56
sL11976912L
(F1.0
L11976920L
tp57
sL11975032L
(F1.0
L11975040L
tp58
sL11976920L
(F1.0
L11976928L
tp59
sL11978976L
(F1.0
L11978984L
tp60
sL11977424L
(F1.0
L11977432L
tp61
sL11976592L
(F1.0
L11976600L
tp62
sL11976280L
(F1.0
L11976288L
tp63
sL11976936L
(F1.0
L11976944L
tp64
sL11975608L
(F1.0
L11975616L
tp65
sL11978992L
(F1.0
L11979000L
tp66
sL11975720L
(F1.0
L11975728L
tp67
sL11979184L
(F1.0
L11979192L
tp68
sL11976952L
(F1.0
L11976960L
tp69
sL11976320L
(F1.0
L11976328L
tp70
sL11979008L
(F1.0
L11979016L
tp71
sL11979136L
(F1.0
L11979144L
tp72
sL11977616L
(F1.0
L11977624L
tp73
sL11976184L
(F1.0
L11976192L
tp74
sL11976968L
(F1.0
L11976976L
tp75
sL11976976L
(F1.0
L11976984L
tp76
sL11975384L
(F1.0
L11975392L
tp77
sL11976984L
(F1.0
L11976992L
tp78
sL11977344L
(F1.0
L11977352L
tp79
sL11975912L
(F1.0
L11975920L
tp80
sL11979040L
(F1.0
L11979048L
tp81
sL11975728L
(F1.0
L11975736L
tp82
sL11977000L
(F1.0
L11977008L
tp83
sL11977008L
(F1.0
L11977016L
tp84
sL11979144L
(F1.0
L11979152L
tp85
sL11975640L
(F1.0
L11975648L
tp86
sL11979064L
(F1.0
L11979072L
tp87
sL11974976L
(F1.0
L11974984L
tp88
sL11977440L
(F1.0
L11977448L
tp89
sL11977032L
(F1.0
L11977040L
tp90
sL11979528L
(F1.0
L11979536L
tp91
sL11979088L
(F1.0
L11979096L
tp92
sL11977784L
(F1.0
L11977792L
tp93
sL11976664L
(F1.0
L11976672L
tp94
sL11975000L
(F1.0
L11975008L
tp95
sL11977960L
(F1.0
L11977968L
tp96
sL11975008L
(F1.0
L11975016L
tp97
sL11977104L
(F1.0
L11977112L
tp98
sL11979256L
(F1.0
L11979264L
tp99
sL11977064L
(F1.0
L11977072L
tp100
sL11976392L
(F1.0
L11976400L
tp101
sL11974960L
(F1.0
L11974968L
tp102
sL11975024L
(F1.0
L11975032L
tp103
sL11977448L
(F1.0
L11977456L
tp104
sL11977080L
(F1.0
L11977088L
tp105
sL11977088L
(F1.0
L11977096L
tp106
sL11978816L
(F1.0
L11978824L
tp107
sL11976120L
(F1.0
L11976128L
tp108
sL11977096L
(F1.0
L11977104L
tp109
sL11978848L
(F1.0
L11978856L
tp110
sL11975056L
(F1.0
L11975064L
tp111
sL11977112L
(F1.0
L11977120L
tp112
sL11975064L
(F1.0
L11975072L
tp113
sL11975848L
(F1.0
L11975856L
tp114
sL11975072L
(F1.0
L11975080L
tp115
sL11975408L
(F1.0
L11975416L
tp116
sL11976032L
(F1.0
L11976040L
tp117
sL11975712L
(F1.0
L11975720L
tp118
sL11975080L
(F1.0
L11975088L
tp119
sL11978440L
(F1.0
L11978448L
tp120
sL11975088L
(F1.0
L11975096L
tp121
sL11977800L
(F1.0
L11977808L
tp122
sL11975576L
(F1.0
L11975584L
tp123
sL11977144L
(F1.0
L11977152L
tp124
sL11975440L
(F1.0
L11975448L
tp125
sL11975104L
(F1.0
L11975112L
tp126
sL11977120L
(F1.0
L11977128L
tp127
sL11975112L
(F1.0
L11975120L
tp128
sL11975304L
(F1.0
L11975312L
tp129
sL11979464L
(F1.0
L11979472L
tp130
sL11975120L
(F1.0
L11975128L
tp131
sL11977464L
(F1.0
L11977472L
tp132
sL11976600L
(F1.0
L11976608L
tp133
sL11975168L
(F1.0
L11975176L
tp134
sL11975128L
(F1.0
L11975136L
tp135
sL11976464L
(F1.0
L11976472L
tp136
sL11975136L
(F1.0
L11975144L
tp137
sL11978832L
(F1.0
L11978840L
tp138
sL11975144L
(F1.0
L11975152L
tp139
sL11976328L
(F1.0
L11976336L
tp140
sL11977200L
(F1.0
L11977208L
tp141
sL11979176L
(F1.0
L11979184L
tp142
sL11976192L
(F1.0
L11976200L
tp143
sL11975160L
(F1.0
L11975168L
tp144
sL11977488L
(F1.0
L11977496L
tp145
sL11977216L
(F1.0
L11977224L
tp146
sL11979520L
(F1.0
L11979528L
tp147
sL11975528L
(F1.0
L11975536L
tp148
sL11976264L
(F1.0
L11976272L
tp149
sL11975176L
(F1.0
L11975184L
tp150
sL11977232L
(F1.0
L11977240L
tp151
sL11978840L
(F1.0
L11978848L
tp152
sL11975192L
(F1.0
L11975200L
tp153
sL11975200L
(F1.0
L11975208L
tp154
sL11977136L
(F1.0
L11977144L
tp155
sL11975648L
(F1.0
L11975656L
tp156
sL11975208L
(F1.0
L11975216L
tp157
sL11975216L
(F1.0
L11975224L
tp158
sL11977480L
(F1.0
L11977488L
tp159
sL11979320L
(F1.0
L11979328L
tp160
sL11975376L
(F1.0
L11975384L
tp161
sL11975232L
(F1.0
L11975240L
tp162
sL11977824L
(F1.0
L11977832L
tp163
sL11976672L
(F1.0
L11976680L
tp164
sL11977056L
(F1.0
L11977064L
tp165
sL11975240L
(F1.0
L11975248L
tp166
sL11977968L
(F1.0
L11977976L
tp167
sL11975248L
(F1.0
L11975256L
tp168
sL11979192L
(F1.0
L11979200L
tp169
sL11976456L
(F1.0
L11976464L
tp170
sL11975256L
(F1.0
L11975264L
tp171
sL11977288L
(F1.0
L11977296L
tp172
sL11976400L
(F1.0
L11976408L
tp173
sL11974968L
(F1.0
L11974976L
tp174
sL11975264L
(F1.0
L11975272L
tp175
sL11979128L
(F1.0
L11979136L
tp176
sL11977320L
(F1.0
L11977328L
tp177
sL11975280L
(F1.0
L11975288L
tp178
sL11977832L
(F1.0
L11977840L
tp179
sL11976128L
(F1.0
L11976136L
tp180
sL11979384L
(F1.0
L11979392L
tp181
sL11978856L
(F1.0
L11978864L
tp182
sL11975992L
(F1.0
L11976000L
tp183
sL11975296L
(F1.0
L11975304L
tp184
sL11979200L
(F1.0
L11979208L
tp185
sL11979400L
(F1.0
L11979408L
tp186
sL11975856L
(F1.0
L11975864L
tp187
sL11975312L
(F1.0
L11975320L
tp188
sL11977496L
(F1.0
L11977504L
tp189
sL11977152L
(F1.0
L11977160L
tp190
sL11979416L
(F1.0
L11979424L
tp191
sL11975328L
(F1.0
L11975336L
tp192
sL11977840L
(F1.0
L11977848L
tp193
sL11975584L
(F1.0
L11975592L
tp194
sL11976552L
(F1.0
L11976560L
tp195
sL11975336L
(F1.0
L11975344L
tp196
sL11976016L
(F1.0
L11976024L
tp197
sL11975344L
(F1.0
L11975352L
tp198
sL11979208L
(F1.0
L11979216L
tp199
sL11976744L
(F1.0
L11976752L
tp200
sL11977400L
(F1.0
L11977408L
tp201
sL11975360L
(F1.0
L11975368L
tp202
sL11975456L
(F1.0
L11975464L
tp203
sL11976608L
(F1.0
L11976616L
tp204
sL11977416L
(F1.0
L11977424L
tp205
sL11977024L
(F1.0
L11977032L
tp206
sL11976472L
(F1.0
L11976480L
tp207
sL11979472L
(F1.0
L11979480L
tp208
sL11978872L
(F1.0
L11978880L
tp209
sL11975040L
(F1.0
L11975048L
tp210
sL11979480L
(F1.0
L11979488L
tp211
sL11976336L
(F1.0
L11976344L
tp212
sL11975392L
(F1.0
L11975400L
tp213
sL11977168L
(F1.0
L11977176L
tp214
sL11976200L
(F1.0
L11976208L
tp215
sL11975400L
(F1.0
L11975408L
tp216
sL11974984L
(F1.0
L11974992L
tp217
sL11977456L
(F1.0
L11977464L
tp218
sL11977512L
(F1.0
L11977520L
tp219
sL11976064L
(F1.0
L11976072L
tp220
sL11975416L
(F1.0
L11975424L
tp221
sL11977360L
(F1.0
L11977368L
tp222
sL11977472L
(F1.0
L11977480L
tp223
sL11977856L
(F1.0
L11977864L
tp224
sL11976048L
(F1.0
L11976056L
tp225
sL11975432L
(F1.0
L11975440L
tp226
sL11979536L
(F1.0
L11979544L
tp227
sL11977176L
(F1.0
L11977184L
tp228
sL11975448L
(F1.0
L11975456L
tp229
sL11979552L
(F1.0
L11979560L
tp230
sL11977520L
(F1.0
L11977528L
tp231
sL11979608L
(F1.0
L11979616L
tp232
sL11975464L
(F1.0
L11975472L
tp233
sL11979544L
(F1.0
L11979552L
tp234
sL11975472L
(F1.0
L11975480L
tp235
sL11975816L
(F1.0
L11975824L
tp236
sL11976680L
(F1.0
L11976688L
tp237
sL11977528L
(F1.0
L11977536L
tp238
sL11977976L
(F1.0
L11977984L
tp239
sL11977536L
(F1.0
L11977544L
tp240
sL11977184L
(F1.0
L11977192L
tp241
sL11979272L
(F1.0
L11979280L
tp242
sL11975496L
(F1.0
L11975504L
tp243
sL11976408L
(F1.0
L11976416L
tp244
sL11977552L
(F1.0
L11977560L
tp245
sL11979576L
(F1.0
L11979584L
tp246
sL11977704L
(F1.0
L11977712L
tp247
sL11975512L
(F1.0
L11975520L
tp248
sL11979616L
(F1.0
L11979624L
tp249
sL11977568L
(F1.0
L11977576L
tp250
sL11976136L
(F1.0
L11976144L
tp251
sL11979624L
(F1.0
L11979632L
tp252
sL11978864L
(F1.0
L11978872L
tp253
sL11977432L
(F1.0
L11977440L
tp254
sL11975536L
(F1.0
L11975544L
tp255
sL11977192L
(F1.0
L11977200L
tp256
sL11977592L
(F1.0
L11977600L
tp257
sL11975864L
(F1.0
L11975872L
tp258
sL11975552L
(F1.0
L11975560L
tp259
sL11975488L
(F1.0
L11975496L
tp260
sL11977160L
(F1.0
L11977168L
tp261
sL11977608L
(F1.0
L11977616L
tp262
sL11975568L
(F1.0
L11975576L
tp263
sL11976856L
(F1.0
L11976864L
tp264
sL11975592L
(F1.0
L11975600L
tp265
sL11979672L
(F1.0
L11979680L
tp266
sL11977632L
(F1.0
L11977640L
tp267
sL11979248L
(F1.0
L11979256L
tp268
sL11979688L
(F1.0
L11979696L
tp269
sL11977648L
(F1.0
L11977656L
tp270
sL11979592L
(F1.0
L11979600L
tp271
sL11976616L
(F1.0
L11976624L
tp272
sL11975184L
(F1.0
L11975192L
tp273
sL11977656L
(F1.0
L11977664L
tp274
sL11977304L
(F1.0
L11977312L
tp275
sL11976480L
(F1.0
L11976488L
tp276
sL11975616L
(F1.0
L11975624L
tp277
sL11976864L
(F1.0
L11976872L
tp278
sL11975048L
(F1.0
L11975056L
tp279
sL11975624L
(F1.0
L11975632L
tp280
sL11976344L
(F1.0
L11976352L
tp281
sL11976000L
(F1.0
L11976008L
tp282
sL11975632L
(F1.0
L11975640L
tp283
sL11977208L
(F1.0
L11977216L
tp284
sL11976208L
(F1.0
L11976216L
tp285
sL11977688L
(F1.0
L11977696L
tp286
sL11977504L
(F1.0
L11977512L
tp287
sL11977696L
(F1.0
L11977704L
tp288
sL11975504L
(F1.0
L11975512L
tp289
sL11976072L
(F1.0
L11976080L
tp290
sL11975760L
(F1.0
L11975768L
tp291
sL11978800L
(F1.0
L11978808L
tp292
sL11975656L
(F1.0
L11975664L
tp293
sL11977368L
(F1.0
L11977376L
tp294
sL11975664L
(F1.0
L11975672L
tp295
sL11978920L
(F1.0
L11978928L
tp296
sL11975672L
(F1.0
L11975680L
tp297
sL11975800L
(F1.0
L11975808L
tp298
sL11977728L
(F1.0
L11977736L
tp299
sL11979264L
(F1.0
L11979272L
tp300
sL11976568L
(F1.0
L11976576L
tp301
sL11977736L
(F1.0
L11977744L
tp302
sL11977744L
(F1.0
L11977752L
tp303
sL11977560L
(F1.0
L11977568L
tp304
sL11977752L
(F1.0
L11977760L
tp305
sL11977760L
(F1.0
L11977768L
tp306
sL11978928L
(F1.0
L11978936L
tp307
sL11976688L
(F1.0
L11976696L
tp308
sL11977768L
(F1.0
L11977776L
tp309
sL11977984L
(F1.0
L11977992L
tp310
sL11977776L
(F1.0
L11977784L
tp311
sL11977224L
(F1.0
L11977232L
tp312
sL11975736L
(F1.0
L11975744L
tp313
sL11976416L
(F1.0
L11976424L
tp314
sL11975744L
(F1.0
L11975752L
tp315
sL11975520L
(F1.0
L11975528L
tp316
sL11977712L
(F1.0
L11977720L
tp317
sL11975752L
(F1.0
L11975760L
tp318
sL11977808L
(F1.0
L11977816L
tp319
sL11978936L
(F1.0
L11978944L
tp320
sL11976144L
(F1.0
L11976152L
tp321
sL11977816L
(F1.0
L11977824L
tp322
sL11975776L
(F1.0
L11975784L
tp323
sL11979280L
(F1.0
L11979288L
tp324
sL11975784L
(F1.0
L11975792L
tp325
sL11975792L
(F1.0
L11975800L
tp326
sL11977576L
(F1.0
L11977584L
tp327
sL11977848L
(F1.0
L11977856L
tp328
sL11975808L
(F1.0
L11975816L
tp329
sL11975872L
(F1.0
L11975880L
tp330
sL11975600L
(F1.0
L11975608L
tp331
sL11977864L
(F1.0
L11977872L
tp332
sL11977872L
(F1.0
L11977880L
tp333
sL11977240L
(F1.0
L11977248L
tp334
sL11977880L
(F1.0
L11977888L
tp335
sL11979488L
(F1.0
L11979496L
tp336
sL11977888L
(F1.0
L11977896L
tp337
sL11977584L
(F1.0
L11977592L
tp338
sL11976624L
(F1.0
L11976632L
tp339
sL11977896L
(F1.0
L11977904L
tp340
sL11976488L
(F1.0
L11976496L
tp341
sL11977904L
(F1.0
L11977912L
tp342
sL11975880L
(F1.0
L11975888L
tp343
sL11979216L
(F1.0
L11979224L
tp344
sL11977912L
(F1.0
L11977920L
tp345
sL11976352L
(F1.0
L11976360L
tp346
sL11977920L
(F1.0
L11977928L
tp347
sL11977248L
(F1.0
L11977256L
tp348
sL11976216L
(F1.0
L11976224L
tp349
sL11977928L
(F1.0
L11977936L
tp350
sL11978944L
(F1.0
L11978952L
tp351
sL11975888L
(F1.0
L11975896L
tp352
sL11975544L
(F1.0
L11975552L
tp353
sL11976080L
(F1.0
L11976088L
tp354
sL11978808L
(F1.0
L11978816L
tp355
sL11975896L
(F1.0
L11975904L
tp356
sL11977376L
(F1.0
L11977384L
tp357
sL11975904L
(F1.0
L11975912L
tp358
sL11977936L
(F1.0
L11977944L
tp359
sL11979120L
(F1.0
L11979128L
tp360
sL11975920L
(F1.0
L11975928L
tp361
sL11977256L
(F1.0
L11977264L
tp362
sL11975928L
(F1.0
L11975936L
tp363
sL11975936L
(F1.0
L11975944L
tp364
sL11977600L
(F1.0
L11977608L
tp365
sL11975944L
(F1.0
L11975952L
tp366
sL11979560L
(F1.0
L11979568L
tp367
sL11975952L
(F1.0
L11975960L
tp368
sL11977944L
(F1.0
L11977952L
tp369
sL11979584L
(F1.0
L11979592L
tp370
sL11976696L
(F1.0
L11976704L
tp371
sL11975960L
(F1.0
L11975968L
tp372
sL11977992L
(F1.0
L11978000L
tp373
sL11975968L
(F1.0
L11975976L
tp374
sL11977264L
(F1.0
L11977272L
tp375
sL11979288L
(F1.0
L11979296L
tp376
sL11978024L
(F1.0
L11978032L
tp377
sL11976424L
(F1.0
L11976432L
tp378
sL11978032L
(F1.0
L11978040L
tp379
sL11979656L
(F1.0
L11979664L
tp380
sL11979152L
(F1.0
L11979160L
tp381
sL11977720L
(F1.0
L11977728L
tp382
sL11978040L
(F1.0
L11978048L
tp383
sL11976288L
(F1.0
L11976296L
tp384
sL11978048L
(F1.0
L11978056L
tp385
sL11976928L
(F1.0
L11976936L
tp386
sL11976152L
(F1.0
L11976160L
tp387
sL11978056L
(F1.0
L11978064L
tp388
sL11978064L
(F1.0
L11978072L
tp389
sL11975224L
(F1.0
L11975232L
tp390
sL11976024L
(F1.0
L11976032L
tp391
sL11977312L
(F1.0
L11977320L
tp392
sL11978080L
(F1.0
L11978088L
tp393
sL11979664L
(F1.0
L11979672L
tp394
sL11976040L
(F1.0
L11976048L
tp395
sL11978096L
(F1.0
L11978104L
tp396
sL11978984L
(F1.0
L11978992L
tp397
sL11979080L
(F1.0
L11979088L
tp398
sL11978104L
(F1.0
L11978112L
tp399
sL11978112L
(F1.0
L11978120L
tp400
sL11977280L
(F1.0
L11977288L
tp401
sL11978120L
(F1.0
L11978128L
tp402
sL11979496L
(F1.0
L11979504L
tp403
sL11978128L
(F1.0
L11978136L
tp404
sL11977624L
(F1.0
L11977632L
tp405
sL11976632L
(F1.0
L11976640L
tp406
sL11976088L
(F1.0
L11976096L
tp407
sL11976496L
(F1.0
L11976504L
tp408
sL11976096L
(F1.0
L11976104L
tp409
sL11976944L
(F1.0
L11976952L
tp410
sL11979224L
(F1.0
L11979232L
tp411
sL11977792L
(F1.0
L11977800L
tp412
sL11976360L
(F1.0
L11976368L
tp413
sL11978160L
(F1.0
L11978168L
tp414
sL11979336L
(F1.0
L11979344L
tp415
sL11975016L
(F1.0
L11975024L
tp416
sL11976224L
(F1.0
L11976232L
tp417
sL11978168L
(F1.0
L11978176L
tp418
sL11978952L
(F1.0
L11978960L
tp419
sL11978176L
(F1.0
L11978184L
tp420
sL11979680L
(F1.0
L11979688L
tp421
sL11978184L
(F1.0
L11978192L
tp422
sL11977384L
(F1.0
L11977392L
tp423
sL11978192L
(F1.0
L11978200L
tp424
sL11979000L
(F1.0
L11979008L
tp425
sL11977040L
(F1.0
L11977048L
tp426
sL11978200L
(F1.0
L11978208L
tp427
sL11976160L
(F1.0
L11976168L
tp428
sL11979344L
(F1.0
L11979352L
tp429
sL11976168L
(F1.0
L11976176L
tp430
sL11978224L
(F1.0
L11978232L
tp431
sL11977640L
(F1.0
L11977648L
tp432
sL11976544L
(F1.0
L11976552L
tp433
sL11978232L
(F1.0
L11978240L
tp434
sL11979568L
(F1.0
L11979576L
tp435
sL11978240L
(F1.0
L11978248L
tp436
sL11976960L
(F1.0
L11976968L
tp437
sL11978136L
(F1.0
L11978144L
tp438
sL11978248L
(F1.0
L11978256L
tp439
sL11975272L
(F1.0
L11975280L
tp440
sL11978000L
(F1.0
L11978008L
tp441
sL11978256L
(F1.0
L11978264L
tp442
sL11979352L
(F1.0
L11979360L
tp443
sL11979296L
(F1.0
L11979304L
tp444
sL11978264L
(F1.0
L11978272L
tp445
sL11976432L
(F1.0
L11976440L
tp446
sL11978272L
(F1.0
L11978280L
tp447
sL11979696L
(F1.0
L11979704L
tp448
sL11979160L
(F1.0
L11979168L
tp449
sL11976232L
(F1.0
L11976240L
tp450
sL11976240L
(F1.0
L11976248L
tp451
sL11979016L
(F1.0
L11979024L
tp452
sL11978072L
(F1.0
L11978080L
tp453
sL11978296L
(F1.0
L11978304L
tp454
sL11978888L
(F1.0
L11978896L
tp455
sL11976256L
(F1.0
L11976264L
tp456
sL11979360L
(F1.0
L11979368L
tp457
sL11978752L
(F1.0
L11978760L
tp458
sL11978312L
(F1.0
L11978320L
tp459
sL11978304L
(F1.0
L11978312L
tp460
sL11976272L
(F1.0
L11976280L
tp461
sL11979704L
(F1.0
L11979712L
tp462
sL11978328L
(F1.0
L11978336L
tp463
sL11978336L
(F1.0
L11978344L
tp464
sL11979024L
(F1.0
L11979032L
tp465
sL11979776L
(F1.0
L11979784L
tp466
sL11976296L
(F1.0
L11976304L
tp467
sL11976304L
(F1.0
L11976312L
tp468
sL11978344L
(F1.0
L11978352L
tp469
sL11979600L
(F1.0
L11979608L
tp470
sL11978208L
(F1.0
L11978216L
tp471
sL11978360L
(F1.0
L11978368L
tp472
sL11979504L
(F1.0
L11979512L
tp473
sL11978368L
(F1.0
L11978376L
tp474
sL11977664L
(F1.0
L11977672L
tp475
sL11976640L
(F1.0
L11976648L
tp476
sL11978376L
(F1.0
L11978384L
tp477
sL11979368L
(F1.0
L11979376L
tp478
sL11976504L
(F1.0
L11976512L
tp479
sL11978384L
(F1.0
L11978392L
tp480
sL11974936L
(F1.0
L11974944L
tp481
sL11979232L
(F1.0
L11979240L
tp482
sL11978392L
(F1.0
L11978400L
tp483
sL11978400L
(F1.0
L11978408L
tp484
sL11977328L
(F1.0
L11977336L
tp485
sL11978408L
(F1.0
L11978416L
tp486
sL11978960L
(F1.0
L11978968L
tp487
sL11976368L
(F1.0
L11976376L
tp488
sL11977672L
(F1.0
L11977680L
tp489
sL11976376L
(F1.0
L11976384L
tp490
sL11978432L
(F1.0
L11978440L
tp491
sL11976992L
(F1.0
L11977000L
tp492
sL11975768L
(F1.0
L11975776L
tp493
sL11975824L
(F1.0
L11975832L
tp494
sL11978448L
(F1.0
L11978456L
tp495
sL11975288L
(F1.0
L11975296L
tp496
sL11979096L
(F1.0
L11979104L
tp497
sL11978456L
(F1.0
L11978464L
tp498
sL11978416L
(F1.0
L11978424L
tp499
sL11978464L
(F1.0
L11978472L
tp500
sL11979728L
(F1.0
L11979736L
tp501
sL11979712L
(F1.0
L11979720L
tp502
sL11978280L
(F1.0
L11978288L
tp503
sL11978472L
(F1.0
L11978480L
tp504
sL11979328L
(F1.0
L11979336L
tp505
sL11978480L
(F1.0
L11978488L
tp506
sL11979048L
(F1.0
L11979056L
tp507
sL11978144L
(F1.0
L11978152L
tp508
sL11979640L
(F1.0
L11979648L
tp509
sL11976440L
(F1.0
L11976448L
tp510
sL11979440L
(F1.0
L11979448L
tp511
sL11978008L
(F1.0
L11978016L
tp512
sL11978496L
(F1.0
L11978504L
tp513
sL11979392L
(F1.0
L11979400L
tp514
sL11976576L
(F1.0
L11976584L
tp515
sL11979304L
(F1.0
L11979312L
tp516
sL11978504L
(F1.0
L11978512L
tp517
sL11977296L
(F1.0
L11977304L
tp518
sL11978512L
(F1.0
L11978520L
tp519
sL11979736L
(F1.0
L11979744L
tp520
sL11979168L
(F1.0
L11979176L
tp521
sL11978520L
(F1.0
L11978528L
tp522
sL11979032L
(F1.0
L11979040L
tp523
sL11978528L
(F1.0
L11978536L
tp524
sL11975984L
(F1.0
L11975992L
tp525
sL11978536L
(F1.0
L11978544L
tp526
sL11978896L
(F1.0
L11978904L
tp527
sL11978544L
(F1.0
L11978552L
tp528
sL11977352L
(F1.0
L11977360L
tp529
sL11978760L
(F1.0
L11978768L
tp530
sL11978552L
(F1.0
L11978560L
tp531
sL11978560L
(F1.0
L11978568L
tp532
sL11979744L
(F1.0
L11979752L
tp533
sL11978624L
(F1.0
L11978632L
tp534
sL11978568L
(F1.0
L11978576L
tp535
sL11978824L
(F1.0
L11978832L
tp536
sL11978488L
(F1.0
L11978496L
tp537
sL11978576L
(F1.0
L11978584L
tp538
sL11977016L
(F1.0
L11977024L
tp539
sL11976560L
(F1.0
L11976568L
tp540
sL11978584L
(F1.0
L11978592L
tp541
sL11978352L
(F1.0
L11978360L
tp542
sL11978592L
(F1.0
L11978600L
tp543
sL11979408L
(F1.0
L11979416L
tp544
sL11979648L
(F1.0
L11979656L
tp545
sL11978216L
(F1.0
L11978224L
tp546
sL11978600L
(F1.0
L11978608L
tp547
sL11979512L
(F1.0
L11979520L
tp548
sL11978608L
(F1.0
L11978616L
tp549
sL11979752L
(F1.0
L11979760L
tp550
sL11976648L
(F1.0
L11976656L
tp551
sL11978616L
(F1.0
L11978624L
tp552
sL11979376L
(F1.0
L11979384L
tp553
sL11976512L
(F1.0
L11976520L
tp554
sL11979072L
(F1.0
L11979080L
tp555
sL11979240L
(F1.0
L11979248L
tp556
sL11979632L
(F1.0
L11979640L
tp557
sL11978632L
(F1.0
L11978640L
tp558
sL11974944L
(F1.0
L11974952L
tp559
sL11978640L
(F1.0
L11978648L
tp560
sL11975320L
(F1.0
L11975328L
tp561
sL11978088L
(F1.0
L11978096L
tp562
sL11978648L
(F1.0
L11978656L
tp563
sL11978968L
(F1.0
L11978976L
tp564
sL11978656L
(F1.0
L11978664L
tp565
sL11979760L
(F1.0
L11979768L
tp566
sL11976104L
(F1.0
L11976112L
tp567
sL11978664L
(F1.0
L11978672L
tp568
sL11978320L
(F1.0
L11978328L
tp569
sL11976536L
(F1.0
L11976544L
tp570
sL11978672L
(F1.0
L11978680L
tp571
sL11976008L
(F1.0
L11976016L
tp572
sL11976056L
(F1.0
L11976064L
tp573
sL11978680L
(F1.0
L11978688L
tp574
sL11975832L
(F1.0
L11975840L
tp575
sL11978688L
(F1.0
L11978696L
tp576
sL11979424L
(F1.0
L11979432L
tp577
sL11977128L
(F1.0
L11977136L
tp578
sL11978696L
(F1.0
L11978704L
tp579
sL11978424L
(F1.0
L11978432L
tp580
sL11978704L
(F1.0
L11978712L
tp581
sL11979768L
(F1.0
L11979776L
tp582
sL11975560L
(F1.0
L11975568L
tp583
sL11979720L
(F1.0
L11979728L
tp584
sL11978288L
(F1.0
L11978296L
tp585
sL11978712L
(F1.0
L11978720L
tp586
sL11975424L
(F1.0
L11975432L
tp587
sL11978720L
(F1.0
L11978728L
tp588
sL11974992L
(F1.0
L11975000L
tp589
sL11976720L
(F1.0
L11976728L
tp590
sL11978728L
(F1.0
L11978736L
tp591
sL11979448L
(F1.0
L11979456L
tp592
sL11978016L
(F1.0
L11978024L
tp593
sL11978736L
(F1.0
L11978744L
tp594
sL11979432L
(F1.0
L11979440L
tp595
sL11976584L
(F1.0
L11976592L
tp596
sL11975152L
(F1.0
L11975160L
tp597
sL11979312L
(F1.0
L11979320L
tp598
sL11978744L
(F1.0
L11978752L
tp599
sL11976448L
(F1.0
L11976456L
tp600
s.