(dp0
L4215808L
(F1.0
L4215816L
tp1
sL4215552L
(F1.0
L4215560L
tp2
sL4215816L
(F1.0
L4215824L
tp3
sL4215824L
(F1.0
L4215832L
tp4
sL4216152L
(F1.0
L4216160L
tp5
sL4215832L
(F1.0
L4215840L
tp6
sL4215840L
(F1.0
L4215848L
tp7
sL4215472L
(F1.0
L4215480L
tp8
sL4215848L
(F1.0
L4215856L
tp9
sL4215856L
(F1.0
L4215864L
tp10
sL4216072L
(F1.0
L4216080L
tp11
sL4215864L
(F1.0
L4215872L
tp12
sL4215872L
(F1.0
L4215880L
tp13
sL4215648L
(F1.0
L4215656L
tp14
sL4215880L
(F1.0
L4215888L
tp15
sL4215992L
(F1.0
L4216000L
tp16
sL4215896L
(F1.0
L4215904L
tp17
sL4215904L
(F1.0
L4215912L
tp18
sL4215568L
(F1.0
L4215576L
tp19
sL4215912L
(F1.0
L4215920L
tp20
sL4215408L
(F1.0
L4215416L
tp21
sL4215416L
(F1.0
L4215424L
tp22
sL4215424L
(F1.0
L4215432L
tp23
sL4216000L
(F1.0
L4216008L
tp24
sL4215432L
(F1.0
L4215440L
tp25
sL4215952L
(F1.0
L4215960L
tp26
sL4216088L
(F1.0
L4216096L
tp27
sL4215960L
(F1.0
L4215968L
tp28
sL4215456L
(F1.0
L4215464L
tp29
sL4215920L
(F1.0
L4215928L
tp30
sL4215464L
(F1.0
L4215472L
tp31
sL4215984L
(F1.0
L4215992L
tp32
sL4216008L
(F1.0
L4216016L
tp33
sL4215480L
(F1.0
L4215488L
tp34
sL4215488L
(F1.0
L4215496L
tp35
sL4216096L
(F1.0
L4216104L
tp36
sL4215496L
(F1.0
L4215504L
tp37
sL4216016L
(F1.0
L4216024L
tp38
sL4215928L
(F1.0
L4215936L
tp39
sL4216024L
(F1.0
L4216032L
tp40
sL4215520L
(F1.0
L4215528L
tp41
sL4215504L
(F1.0
L4215512L
tp42
sL4215528L
(F1.0
L4215536L
tp43
sL4216048L
(F1.0
L4216056L
tp44
sL4215592L
(F1.0
L4215600L
tp45
sL4215544L
(F1.0
L4215552L
tp46
sL4216064L
(F1.0
L4216072L
tp47
sL4215936L
(F1.0
L4215944L
tp48
sL4215560L
(F1.0
L4215568L
tp49
sL4216080L
(F1.0
L4216088L
tp50
sL4215512L
(F1.0
L4215520L
tp51
sL4215576L
(F1.0
L4215584L
tp52
sL4215584L
(F1.0
L4215592L
tp53
sL4215600L
(F1.0
L4215608L
tp54
sL4216104L
(F1.0
L4216112L
tp55
sL4216112L
(F1.0
L4216120L
tp56
sL4215944L
(F1.0
L4215952L
tp57
sL4216120L
(F1.0
L4216128L
tp58
sL4216128L
(F1.0
L4216136L
tp59
sL4216032L
(F1.0
L4216040L
tp60
sL4216136L
(F1.0
L4216144L
tp61
sL4215632L
(F1.0
L4215640L
tp62
sL4215608L
(F1.0
L4215616L
tp63
sL4215640L
(F1.0
L4215648L
tp64
sL4216160L
(F1.0
L4216168L
tp65
sL4215440L
(F1.0
L4215448L
tp66
sL4215656L
(F1.0
L4215664L
tp67
sL4215664L
(F1.0
L4215672L
tp68
sL4216040L
(F1.0
L4216048L
tp69
sL4215672L
(F1.0
L4215680L
tp70
sL4215680L
(F1.0
L4215688L
tp71
sL4215688L
(F1.0
L4215696L
tp72
sL4215696L
(F1.0
L4215704L
tp73
sL4215448L
(F1.0
L4215456L
tp74
sL4215704L
(F1.0
L4215712L
tp75
sL4215712L
(F1.0
L4215720L
tp76
sL4215536L
(F1.0
L4215544L
tp77
sL4215720L
(F1.0
L4215728L
tp78
sL4215728L
(F1.0
L4215736L
tp79
sL4215624L
(F1.0
L4215632L
tp80
sL4215736L
(F1.0
L4215744L
tp81
sL4215744L
(F1.0
L4215752L
tp82
sL4215968L
(F1.0
L4215976L
tp83
sL4215752L
(F1.0
L4215760L
tp84
sL4215760L
(F1.0
L4215768L
tp85
sL4216056L
(F1.0
L4216064L
tp86
sL4215768L
(F1.0
L4215776L
tp87
sL4215776L
(F1.0
L4215784L
tp88
sL4216144L
(F1.0
L4216152L
tp89
sL4215784L
(F1.0
L4215792L
tp90
sL4215792L
(F1.0
L4215800L
tp91
sL4215976L
(F1.0
L4215984L
tp92
sL4215800L
(F1.0
L4215808L
tp93
s.