(dp0
L2366080L
(F1.0
L2366088L
tp1
sL2366320L
(F1.0
L2366328L
tp2
sL2366256L
(F1.0
L2366264L
tp3
sL2366384L
(F1.0
L2366392L
tp4
sL2365992L
(F1.0
L2366000L
tp5
sL2366088L
(F1.0
L2366096L
tp6
sL2366576L
(F1.0
L2366584L
tp7
sL2366120L
(F1.0
L2366128L
tp8
sL2366536L
(F1.0
L2366544L
tp9
sL2366528L
(F1.0
L2366536L
tp10
sL2365976L
(F1.0
L2365984L
tp11
sL2366376L
(F1.0
L2366384L
tp12
sL2366072L
(F1.0
L2366080L
tp13
sL2366440L
(F1.0
L2366448L
tp14
sL2366504L
(F1.0
L2366512L
tp15
sL2366104L
(F1.0
L2366112L
tp16
sL2366048L
(F1.0
L2366056L
tp17
sL2366112L
(F1.0
L2366120L
tp18
sL2366296L
(F1.0
L2366304L
tp19
sL2366240L
(F1.0
L2366248L
tp20
sL2365984L
(F1.0
L2365992L
tp21
sL2366512L
(F1.0
L2366520L
tp22
sL2366368L
(F1.0
L2366376L
tp23
sL2366496L
(F1.0
L2366504L
tp24
sL2366248L
(F1.0
L2366256L
tp25
sL2366560L
(F1.0
L2366568L
tp26
sL2366304L
(F1.0
L2366312L
tp27
sL2366232L
(F1.0
L2366240L
tp28
sL2366000L
(F1.0
L2366008L
tp29
sL2366152L
(F1.0
L2366160L
tp30
sL2366360L
(F1.0
L2366368L
tp31
sL2366424L
(F1.0
L2366432L
tp32
sL2366488L
(F1.0
L2366496L
tp33
sL2366008L
(F1.0
L2366016L
tp34
sL2366160L
(F1.0
L2366168L
tp35
sL2366064L
(F1.0
L2366072L
tp36
sL2366224L
(F1.0
L2366232L
tp37
sL2366016L
(F1.0
L2366024L
tp38
sL2366144L
(F1.0
L2366152L
tp39
sL2366176L
(F1.0
L2366184L
tp40
sL2366352L
(F1.0
L2366360L
tp41
sL2366264L
(F1.0
L2366272L
tp42
sL2366480L
(F1.0
L2366488L
tp43
sL2366288L
(F1.0
L2366296L
tp44
sL2366280L
(F1.0
L2366288L
tp45
sL2366056L
(F1.0
L2366064L
tp46
sL2366216L
(F1.0
L2366224L
tp47
sL2366040L
(F1.0
L2366048L
tp48
sL2366416L
(F1.0
L2366424L
tp49
sL2366136L
(F1.0
L2366144L
tp50
sL2366344L
(F1.0
L2366352L
tp51
sL2366408L
(F1.0
L2366416L
tp52
sL2366472L
(F1.0
L2366480L
tp53
sL2366168L
(F1.0
L2366176L
tp54
sL2366312L
(F1.0
L2366320L
tp55
sL2366208L
(F1.0
L2366216L
tp56
sL2366392L
(F1.0
L2366400L
tp57
sL2366432L
(F1.0
L2366440L
tp58
sL2366096L
(F1.0
L2366104L
tp59
sL2366336L
(F1.0
L2366344L
tp60
sL2366032L
(F1.0
L2366040L
tp61
sL2366464L
(F1.0
L2366472L
tp62
sL2366272L
(F1.0
L2366280L
tp63
sL2366568L
(F1.0
L2366576L
tp64
sL2366552L
(F1.0
L2366560L
tp65
sL2366592L
(F1.0
L2366600L
tp66
sL2366200L
(F1.0
L2366208L
tp67
sL2366024L
(F1.0
L2366032L
tp68
sL2366448L
(F1.0
L2366456L
tp69
sL2366184L
(F1.0
L2366192L
tp70
sL2366400L
(F1.0
L2366408L
tp71
sL2366456L
(F1.0
L2366464L
tp72
sL2366520L
(F1.0
L2366528L
tp73
sL2366328L
(F1.0
L2366336L
tp74
sL2366584L
(F1.0
L2366592L
tp75
sL2366128L
(F1.0
L2366136L
tp76
sL2366192L
(F1.0
L2366200L
tp77
sL2366544L
(F1.0
L2366552L
tp78
s.