(dp0
L2321792L
(F1.0
L2321800L
tp1
sL2321920L
(F1.0
L2321928L
tp2
sL2322304L
(F1.0
L2322312L
tp3
sL2321848L
(F1.0
L2321856L
tp4
sL2321912L
(F1.0
L2321920L
tp5
sL2321976L
(F1.0
L2321984L
tp6
sL2321800L
(F1.0
L2321808L
tp7
sL2322040L
(F1.0
L2322048L
tp8
sL2322128L
(F1.0
L2322136L
tp9
sL2321808L
(F1.0
L2321816L
tp10
sL2321944L
(F1.0
L2321952L
tp11
sL2322000L
(F1.0
L2322008L
tp12
sL2321904L
(F1.0
L2321912L
tp13
sL2321968L
(F1.0
L2321976L
tp14
sL2321816L
(F1.0
L2321824L
tp15
sL2322160L
(F1.0
L2322168L
tp16
sL2322120L
(F1.0
L2322128L
tp17
sL2322224L
(F1.0
L2322232L
tp18
sL2321824L
(F1.0
L2321832L
tp19
sL2322096L
(F1.0
L2322104L
tp20
sL2321896L
(F1.0
L2321904L
tp21
sL2321960L
(F1.0
L2321968L
tp22
sL2322024L
(F1.0
L2322032L
tp23
sL2321992L
(F1.0
L2322000L
tp24
sL2321784L
(F1.0
L2321792L
tp25
sL2322216L
(F1.0
L2322224L
tp26
sL2321840L
(F1.0
L2321848L
tp27
sL2322296L
(F1.0
L2322304L
tp28
sL2321984L
(F1.0
L2321992L
tp29
sL2321888L
(F1.0
L2321896L
tp30
sL2321952L
(F1.0
L2321960L
tp31
sL2322104L
(F1.0
L2322112L
tp32
sL2322080L
(F1.0
L2322088L
tp33
sL2322144L
(F1.0
L2322152L
tp34
sL2322208L
(F1.0
L2322216L
tp35
sL2322240L
(F1.0
L2322248L
tp36
sL2322016L
(F1.0
L2322024L
tp37
sL2322248L
(F1.0
L2322256L
tp38
sL2322072L
(F1.0
L2322080L
tp39
sL2322136L
(F1.0
L2322144L
tp40
sL2322200L
(F1.0
L2322208L
tp41
sL2322256L
(F1.0
L2322264L
tp42
sL2322232L
(F1.0
L2322240L
tp43
sL2322328L
(F1.0
L2322336L
tp44
sL2321936L
(F1.0
L2321944L
tp45
sL2322008L
(F1.0
L2322016L
tp46
sL2322064L
(F1.0
L2322072L
tp47
sL2322280L
(F1.0
L2322288L
tp48
sL2322192L
(F1.0
L2322200L
tp49
sL2322272L
(F1.0
L2322280L
tp50
sL2321872L
(F1.0
L2321880L
tp51
sL2321864L
(F1.0
L2321872L
tp52
sL2321928L
(F1.0
L2321936L
tp53
sL2322152L
(F1.0
L2322160L
tp54
sL2322056L
(F1.0
L2322064L
tp55
sL2322264L
(F1.0
L2322272L
tp56
sL2322184L
(F1.0
L2322192L
tp57
sL2322032L
(F1.0
L2322040L
tp58
sL2322088L
(F1.0
L2322096L
tp59
sL2322312L
(F1.0
L2322320L
tp60
sL2321856L
(F1.0
L2321864L
tp61
sL2322168L
(F1.0
L2322176L
tp62
sL2322048L
(F1.0
L2322056L
tp63
sL2322112L
(F1.0
L2322120L
tp64
sL2322176L
(F1.0
L2322184L
tp65
sL2322288L
(F1.0
L2322296L
tp66
s.