(dp0
L20480L
(F141.24137931034483
L20513L
tp1
sL28672L
(F2.0
L28677L
tp2
sL16386L
(F3.906067469305042
L16437L
tp3
sL18436L
(F564.9655172413793
L18491L
tp4
sL14341L
(F17.18300996329313
L14354L
tp5
sL36870L
(F3.1219512195121952
L36887L
tp6
sL30728L
(F2.0
L30733L
tp7
sL28683L
(F2.0
L28692L
tp8
sL22540L
(F107.78947368421052
L22565L
tp9
sL30733L
(F4.0
L30748L
tp10
sL24592L
(F1.994461980062609
L24619L
tp11
sL14354L
(F34.36601992658626
L14392L
tp12
sL13776L
(F8.0
L13790L
tp13
sL38934L
(F73.21004252385285
L38952L
tp14
sL36887L
(F6.2439024390243905
L36896L
tp15
sL28370L
(F2.4615384615384617
L28381L
tp16
sL22532L
(F53.89473684210526
L22540L
tp17
sL30748L
(F2.909090909090909
L30759L
tp18
sL26653L
(F45.75001855712642
L26658L
tp19
sL28677L
(F4.0
L28683L
tp20
sL28704L
(F1.0
L28713L
tp21
sL20513L
(F282.48275862068965
L20530L
tp22
sL26658L
(F22.87500927856321
L26671L
tp23
sL24864L
(F45.01748825867885
L24874L
tp24
sL22565L
(F215.57894736842104
L22572L
tp25
sL30759L
(F5.818181818181818
L30773L
tp26
sL28713L
(F2.0
L28733L
tp27
sL24619L
(F3.988923960125218
L24630L
tp28
sL22572L
(F107.78947368421052
L22586L
tp29
sL33008L
(F8.0
L33014L
tp30
sL26671L
(F0.9581151995238019
L26687L
tp31
sL32816L
(F1.0
L32835L
tp32
sL35736L
(F0.64
L35747L
tp33
sL38964L
(F20.95175087724844
L38972L
tp34
sL16437L
(F7.812134938610084
L16465L
tp35
sL24630L
(F7.977847920250436
L24649L
tp36
sL20536L
(F141.24137931034483
L20546L
tp37
sL22586L
(F0.4942084942084942
L22595L
tp38
sL18491L
(F1129.9310344827586
L18544L
tp39
sL38972L
(F0.8396906084996508
L38983L
tp40
sL28733L
(F4.0
L28744L
tp41
sL26687L
(F1.9162303990476037
L26707L
tp42
sL30784L
(F1.0
L30790L
tp43
sL18784L
(F1.3333333333333333
L18849L
tp44
sL20546L
(F3.261146496815287
L20560L
tp45
sL32835L
(F2.0
L32841L
tp46
sL26462L
(F180.0699530347154
L26478L
tp47
sL30790L
(F2.0
L30799L
tp48
sL38983L
(F1.3094844298280275
L39014L
tp49
sL22600L
(F6.7368421052631575
L22606L
tp50
sL24649L
(F15.955695840500873
L24659L
tp51
sL18006L
(F8.0
L18008L
tp52
sL22606L
(F13.473684210526315
L22616L
tp53
sL30799L
(F4.0
L30813L
tp54
sL20560L
(F282.48275862068965
L20618L
tp55
sL16465L
(F1.3227303919589877
L16489L
tp56
sL32850L
(F8.0
L32860L
tp57
sL28755L
(F2.6666666666666665
L28768L
tp58
sL23566L
(F22.508744129339426
L23576L
tp59
sL38585L
(F0.8113787525481907
L38598L
tp60
sL22616L
(F26.94736842105263
L22624L
tp61
sL17472L
(F64.0
L17486L
tp62
sL32860L
(F16.0
L32866L
tp63
sL30816L
(F1.3333333333333333
L30830L
tp64
sL2159632L
(F1.0
L2159640L
tp65
sL32866L
(F32.0
L32876L
tp66
sL36965L
(F15.058823529411764
L36974L
tp67
sL39014L
(F2.618968859656055
L39039L
tp68
sL31761L
(F1.0
L31766L
tp69
sL21632L
(F141.24137931034483
L21659L
tp70
sL16489L
(F3.184683042981753
L16554L
tp71
sL32876L
(F1.2549019607843137
L32892L
tp72
sL14445L
(F0.579841449603624
L14471L
tp73
sL36974L
(F3.764705882352941
L36990L
tp74
sL26735L
(F45.75001855712642
L26739L
tp75
sL18544L
(F0.6604321186713963
L18576L
tp76
sL26739L
(F91.50003711425283
L26743L
tp77
sL22206L
(F0.19616858237547893
L22218L
tp78
sL22647L
(F0.7710843373493976
L22671L
tp79
sL22377L
(F85.33333333333333
L22387L
tp80
sL36990L
(F7.529411764705882
L37007L
tp81
sL39039L
(F5.23793771931211
L39058L
tp82
sL32896L
(F2.0
L32902L
tp83
sL36544L
(F3.3684210526315788
L36553L
tp84
sL28802L
(F1.6
L28826L
tp85
sL26756L
(F1.8769231237733979
L26773L
tp86
sL32902L
(F4.0
L32908L
tp87
sL14471L
(F1.159682899207248
L14477L
tp88
sL18008L
(F16.0
L18014L
tp89
sL20618L
(F564.9655172413793
L20684L
tp90
sL32908L
(F8.0
L32914L
tp91
sL14477L
(F2.319365798414496
L14486L
tp92
sL22671L
(F1.5421686746987953
L22689L
tp93
sL18576L
(F0.10972996142306043
L18608L
tp94
sL2159640L
(F1.0
L2159648L
tp95
sL29056L
(F2.0
L29066L
tp96
sL26773L
(F3.7538462475467957
L26778L
tp97
sL14486L
(F4.638731596828992
L14517L
tp98
sL32920L
(F32.0
L32926L
tp99
sL26778L
(F1.8769231237733979
L26784L
tp100
sL32926L
(F7.111111111111111
L32933L
tp101
sL14021L
(F2.048
L14089L
tp102
sL26784L
(F91.50003711425283
L26793L
tp103
sL32936L
(F16.0
L32954L
tp104
sL26793L
(F45.75001855712642
L26808L
tp105
sL16554L
(F1.9248120300751879
L16598L
tp106
sL17600L
(F1.0
L17615L
tp107
sL24749L
(F3.764091073723705
L24768L
tp108
sL21760L
(F9.846153846153847
L21796L
tp109
sL18608L
(F0.21945992284612087
L18611L
tp110
sL18120L
(F9.142857142857142
L18123L
tp111
sL18611L
(F0.1771774775675946
L18620L
tp112
sL14520L
(F0.8040832351786416
L14528L
tp113
sL32954L
(F32.0
L32972L
tp114
sL18620L
(F0.3543549551351892
L18625L
tp115
sL22719L
(F7.816793893129771
L22766L
tp116
sL14528L
(F0.7624720774385704
L14551L
tp117
sL36896L
(F1.903345724907063
L36905L
tp118
sL26818L
(F1.5486602263848108
L26846L
tp119
sL37059L
(F2.0
L37087L
tp120
sL21488L
(F2.206896551724138
L21499L
tp121
sL18632L
(F8.827586206896552
L18642L
tp122
sL20684L
(F1.9964662158045452
L20705L
tp123
sL28880L
(F1.0
L28888L
tp124
sL24952L
(F60.02331767823847
L24964L
tp125
sL18642L
(F17.655172413793103
L18648L
tp126
sL24789L
(F3.8784615357876517
L24846L
tp127
sL14551L
(F1.1434952540480179
L14563L
tp128
sL18648L
(F35.310344827586206
L18658L
tp129
sL39129L
(F13.967833918165626
L39139L
tp130
sL17056L
(F1.0507952796305797
L17072L
tp131
sL30941L
(F8.0
L30951L
tp132
sL26846L
(F3.0973204527696216
L26851L
tp133
sL37087L
(F4.0
L37101L
tp134
sL16608L
(F2.6666666666666665
L16650L
tp135
sL31440L
(F1.0
L31454L
tp136
sL18658L
(F70.62068965517241
L18668L
tp137
sL14563L
(F0.4468688631900502
L14583L
tp138
sL37744L
(F4.0
L37753L
tp139
sL37873L
(F64.0
L37936L
tp140
sL30951L
(F16.0
L30957L
tp141
sL20712L
(F70.62068965517241
L20726L
tp142
sL28907L
(F2.0
L28919L
tp143
sL18668L
(F141.24137931034483
L18674L
tp144
sL30957L
(F6.4
L30970L
tp145
sL22766L
(F15.633587786259541
L22805L
tp146
sL26864L
(F3.0973204527696216
L26912L
tp147
sL21544L
(F1129.9310344827586
L21557L
tp148
sL18674L
(F37.66436781609195
L18693L
tp149
sL30696L
(F10.666666666666666
L30710L
tp150
sL20726L
(F141.24137931034483
L20743L
tp151
sL28919L
(F4.0
L28931L
tp152
sL29264L
(F1.0
L29272L
tp153
sL18080L
(F32.0
L18090L
tp154
sL26584L
(F11.437504639281604
L26605L
tp155
sL30976L
(F4.0
L30982L
tp156
sL16768L
(F11.770114942528735
L16816L
tp157
sL28931L
(F8.0
L28943L
tp158
sL18693L
(F75.3287356321839
L18720L
tp159
sL30982L
(F8.0
L30988L
tp160
sL39178L
(F55.871335672662504
L39201L
tp161
sL16087L
(F5.565217391304348
L16100L
tp162
sL30988L
(F16.0
L31013L
tp163
sL24846L
(F7.7569230715753035
L24861L
tp164
sL28943L
(F16.0
L28955L
tp165
sL20752L
(F564.9655172413793
L20769L
tp166
sL37138L
(F2.6666666666666665
L37162L
tp167
sL34179L
(F2.6666666666666665
L34187L
tp168
sL33046L
(F6.4
L33060L
tp169
sL22808L
(F3.657142857142857
L22820L
tp170
sL33156L
(F128.0
L33178L
tp171
sL28955L
(F32.0
L28976L
tp172
sL31981L
(F1.0666666666666667
L32004L
tp173
sL18720L
(F0.3545092608620391
L18737L
tp174
sL34864L
(F1.0
L34872L
tp175
sL25928L
(F8.578128479461204
L25938L
tp176
sL22820L
(F7.314285714285714
L22875L
tp177
sL22105L
(F7.816793893129771
L22111L
tp178
sL20776L
(F141.24137931034483
L20829L
tp179
sL21456L
(F112.99310344827586
L21467L
tp180
sL24874L
(F90.0349765173577
L24880L
tp181
sL24285L
(F11.254372064669713
L24295L
tp182
sL24880L
(F180.0699530347154
L24890L
tp183
sL24424L
(F37.944389127965394
L24458L
tp184
sL26930L
(F14.913412974477408
L26964L
tp185
sL30000L
(F4.0
L30011L
tp186
sL21560L
(F564.9655172413793
L21588L
tp187
sL18744L
(F282.48275862068965
L18753L
tp188
sL24177L
(F0.06294287272205465
L24190L
tp189
sL24890L
(F180.0699530347154
L24902L
tp190
sL37179L
(F4.571428571428571
L37213L
tp191
sL14653L
(F0.4020416175893208
L14672L
tp192
sL39230L
(F223.48534269065001
L39240L
tp193
sL28544L
(F2.0
L28554L
tp194
sL35136L
(F1.0
L35138L
tp195
sL18753L
(F564.9655172413793
L18765L
tp196
sL34187L
(F1.3333333333333333
L34195L
tp197
sL24902L
(F360.1399060694308
L24922L
tp198
sL16710L
(F1.4311670160726764
L16734L
tp199
sL16352L
(F0.9765168673262605
L16365L
tp200
sL39240L
(F446.97068538130003
L39250L
tp201
sL33098L
(F32.0
L33108L
tp202
sL18765L
(F1.9964662158045452
L18782L
tp203
sL14672L
(F0.8040832351786416
L14687L
tp204
sL14392L
(F68.73203985317252
L14432L
tp205
sL35200L
(F1.0
L35202L
tp206
sL26964L
(F0.05637014044920296
L26969L
tp207
sL39256L
(F7.92904195097971
L39275L
tp208
sL26969L
(F4.289064239730602
L27000L
tp209
sL24922L
(F22.508744129339426
L24932L
tp210
sL22875L
(F14.628571428571428
L22940L
tp211
sL13232L
(F1.0
L13232L
tp212
sL20829L
(F282.48275862068965
L20936L
tp213
sL16734L
(F2.8623340321453528
L16764L
tp214
sL14688L
(F8.591504981646565
L14698L
tp215
sL35216L
(F1.0
L35218L
tp216
sL30779L
(F10.666666666666666
L30784L
tp217
sL24932L
(F45.01748825867885
L24942L
tp218
sL29031L
(F2.0
L29044L
tp219
sL33129L
(F64.0
L33156L
tp220
sL14698L
(F1.7914821496911049
L14711L
tp221
sL39275L
(F15.85808390195942
L39328L
tp222
sL31040L
(F8.0
L31065L
tp223
sL24942L
(F90.0349765173577
L24952L
tp224
sL35184L
(F1.0
L35186L
tp225
sL33512L
(F2.0
L33624L
tp226
sL29044L
(F1.0
L29056L
tp227
sL13856L
(F8.0
L13875L
tp228
sL27000L
(F8.578128479461204
L27007L
tp229
sL37242L
(F4.0
L37247L
tp230
sL36927L
(F16.0
L36936L
tp231
sL27007L
(F4.289064239730602
L27028L
tp232
sL14720L
(F17.18300996329313
L14729L
tp233
sL27712L
(F2.782608695652174
L27720L
tp234
sL24964L
(F120.04663535647694
L24977L
tp235
sL2159728L
(F1.0
L2159736L
tp236
sL26200L
(F34.31251391784482
L26212L
tp237
sL29066L
(F1.0
L29076L
tp238
sL24768L
(F0.9696153839469129
L24780L
tp239
sL14736L
(F68.73203985317252
L14770L
tp240
sL24977L
(F0.3862712466092411
L24994L
tp241
sL37248L
(F2.6666666666666665
L37282L
tp242
sL27028L
(F8.578128479461204
L27033L
tp243
sL27033L
(F8.578128479461204
L27043L
tp244
sL29207L
(F4.0
L29212L
tp245
sL21891L
(F35.310344827586206
L21908L
tp246
sL22940L
(F1.8720292504570384
L22951L
tp247
sL29088L
(F1.0
L29097L
tp248
sL21232L
(F282.48275862068965
L21244L
tp249
sL24994L
(F0.6474892527965731
L25004L
tp250
sL27043L
(F17.15625695892241
L27053L
tp251
sL37285L
(F1.3333333333333333
L37306L
tp252
sL17256L
(F1.0
L17273L
tp253
sL18856L
(F2.4615384615384617
L18876L
tp254
sL29097L
(F2.0
L29109L
tp255
sL39338L
(F3.964520975489855
L39363L
tp256
sL25004L
(F10.666666666666666
L25025L
tp257
sL27053L
(F34.31251391784482
L27058L
tp258
sL14608L
(F1.0544471617968851
L14653L
tp259
sL16816L
(F1.8351254480286738
L16828L
tp260
sL36936L
(F32.0
L36946L
tp261
sL14770L
(F137.46407970634505
L14787L
tp262
sL29109L
(F4.0
L29114L
tp263
sL32841L
(F4.0
L32850L
tp264
sL29114L
(F2.0
L29123L
tp265
sL18876L
(F4.923076923076923
L18911L
tp266
sL28384L
(F5.333333333333333
L28394L
tp267
sL27070L
(F8.578128479461204
L27081L
tp268
sL36597L
(F8.0
L36606L
tp269
sL31168L
(F2.0
L31193L
tp270
sL25025L
(F21.333333333333332
L25061L
tp271
sL29123L
(F4.0
L29128L
tp272
sL20936L
(F564.9655172413793
L20961L
tp273
sL27081L
(F17.15625695892241
L27089L
tp274
sL22986L
(F170.66666666666666
L22996L
tp275
sL33228L
(F3.764705882352941
L33236L
tp276
sL37282L
(F5.333333333333333
L37285L
tp277
sL22247L
(F1.3333333333333333
L22275L
tp278
sL16848L
(F2.8623340321453528
L16886L
tp279
sL29137L
(F4.0
L29142L
tp280
sL22996L
(F341.3333333333333
L23001L
tp281
sL35285L
(F2.0
L35290L
tp282
sL29142L
(F2.0
L29151L
tp283
sL20065L
(F3.261146496815287
L20081L
tp284
sL27096L
(F7.1647637618189455
L27100L
tp285
sL27100L
(F1.7911909404547364
L27161L
tp286
sL37341L
(F4.571428571428571
L37370L
tp287
sL18911L
(F9.846153846153847
L18931L
tp288
sL23008L
(F62.534351145038165
L23050L
tp289
sL17488L
(F64.0
L17502L
tp290
sL33250L
(F16.0
L33256L
tp291
sL16123L
(F1.471264367816092
L16129L
tp292
sL29156L
(F2.0
L29165L
tp293
sL25061L
(F21.333333333333332
L25077L
tp294
sL34897L
(F1.3333333333333333
L34899L
tp295
sL20968L
(F1129.9310344827586
L20985L
tp296
sL29165L
(F4.0
L29170L
tp297
sL24317L
(F180.0699530347154
L24327L
tp298
sL35312L
(F1.0
L35381L
tp299
sL18020L
(F12.8
L18031L
tp300
sL29170L
(F2.0
L29179L
tp301
sL18931L
(F19.692307692307693
L18965L
tp302
sL25077L
(F42.666666666666664
L25124L
tp303
sL14840L
(F137.46407970634505
L14856L
tp304
sL39417L
(F0.9418670358574561
L39435L
tp305
sL20320L
(F4.413793103448276
L20387L
tp306
sL29179L
(F4.0
L29184L
tp307
sL31230L
(F1.0
L31260L
tp308
sL16896L
(F1.257743829885234
L16904L
tp309
sL21248L
(F282.48275862068965
L21263L
tp310
sL36815L
(F16.0
L36820L
tp311
sL27892L
(F2.3758700696055683
L27897L
tp312
sL16129L
(F2.942528735632184
L16144L
tp313
sL14856L
(F5.565217391304348
L14869L
tp314
sL29193L
(F4.0
L29198L
tp315
sL27841L
(F2.3758700696055683
L27846L
tp316
sL39435L
(F1.8837340717149123
L39440L
tp317
sL35833L
(F4.0
L35854L
tp318
sL16909L
(F0.5579668809331233
L16924L
tp319
sL29198L
(F2.0
L29207L
tp320
sL23056L
(F29.257142857142856
L23066L
tp321
sL37393L
(F2.0
L37408L
tp322
sL22275L
(F2.6666666666666665
L22297L
tp323
sL14869L
(F1.1428571428571428
L14917L
tp324
sL21015L
(F1129.9310344827586
L21032L
tp325
sL18968L
(F3.2
L18981L
tp326
sL27161L
(F3.5823818809094727
L27176L
tp327
sL29212L
(F2.0
L29221L
tp328
sL39454L
(F27.935667836331252
L39477L
tp329
sL22063L
(F10.666666666666666
L22069L
tp330
sL16928L
(F5.031941031941032
L16971L
tp331
sL22960L
(F0.5638766519823789
L22974L
tp332
sL25124L
(F5.333333333333333
L25162L
tp333
sL29221L
(F4.0
L29226L
tp334
sL17408L
(F64.0
L17419L
tp335
sL36912L
(F8.0
L36927L
tp336
sL18984L
(F35.310344827586206
L18994L
tp337
sL23081L
(F0.43732650010676916
L23132L
tp338
sL29226L
(F2.0
L29235L
tp339
sL27058L
(F4.289064239730602
L27070L
tp340
sL18994L
(F70.62068965517241
L19004L
tp341
sL29235L
(F4.0
L29240L
tp342
sL37428L
(F1.3333333333333333
L37441L
tp343
sL39477L
(F55.871335672662504
L39480L
tp344
sL29240L
(F2.0
L29249L
tp345
sL31289L
(F1.0666666666666667
L31312L
tp346
sL19551L
(F0.3142444773700438
L19566L
tp347
sL19004L
(F141.24137931034483
L19014L
tp348
sL32480L
(F1.0
L32530L
tp349
sL24092L
(F480.18654142590776
L24172L
tp350
sL33344L
(F768.0
L33364L
tp351
sL14432L
(F0.2234831951113051
L14445L
tp352
sL14917L
(F0.6666666666666666
L14926L
tp353
sL19014L
(F282.48275862068965
L19027L
tp354
sL29256L
(F2.0
L29258L
tp355
sL25162L
(F10.666666666666666
L25167L
tp356
sL39499L
(F55.54903352066022
L39510L
tp357
sL14926L
(F0.381840216276685
L14931L
tp358
sL25167L
(F22.508744129339426
L25177L
tp359
sL16976L
(F5.031941031941032
L17014L
tp360
sL24780L
(F1.9392307678938259
L24789L
tp361
sL19027L
(F1.9929448972144508
L19044L
tp362
sL39510L
(F13.877251755008638
L39539L
tp363
sL30776L
(F1.103448275862069
L30779L
tp364
sL33368L
(F768.0
L33380L
tp365
sL25177L
(F45.01748825867885
L25187L
tp366
sL21082L
(F3.9929324316090904
L21099L
tp367
sL23132L
(F0.8746530002135383
L23200L
tp368
sL37306L
(F0.8
L37326L
tp369
sL29280L
(F1.3333333333333333
L29280L
tp370
sL16144L
(F5.885057471264368
L16214L
tp371
sL25187L
(F90.0349765173577
L25197L
tp372
sL15296L
(F3.2
L15323L
tp373
sL35429L
(F2.0
L35454L
tp374
sL21840L
(F141.24137931034483
L21857L
tp375
sL23313L
(F3.026507804562667
L23324L
tp376
sL19048L
(F35.310344827586206
L19058L
tp377
sL28264L
(F3.5555555555555554
L28287L
tp378
sL25703L
(F1.9565382623936933
L25713L
tp379
sL25197L
(F180.0699530347154
L25207L
tp380
sL24336L
(F4.743048640995674
L24359L
tp381
sL27247L
(F10.108171820511858
L27281L
tp382
sL21104L
(F141.24137931034483
L21144L
tp383
sL31848L
(F2.0
L31873L
tp384
sL19058L
(F70.62068965517241
L19068L
tp385
sL39539L
(F11.116219261388713
L39568L
tp386
sL17888L
(F1.0
L17909L
tp387
sL25207L
(F0.4417188441571188
L25221L
tp388
sL33400L
(F12.8
L33424L
tp389
sL19068L
(F141.24137931034483
L19089L
tp390
sL34528L
(F3.5555555555555554
L34547L
tp391
sL35454L
(F1.0
L35461L
tp392
sL37503L
(F2.0
L37508L
tp393
sL17024L
(F2.0
L17048L
tp394
sL16832L
(F1.7297297297297298
L16845L
tp395
sL37508L
(F1.0
L37515L
tp396
sL25221L
(F0.8834376883142376
L25242L
tp397
sL35464L
(F2.0
L35479L
tp398
sL37515L
(F2.0
L37528L
tp399
sL39568L
(F55.871335672662504
L39583L
tp400
sL19089L
(F282.48275862068965
L19106L
tp401
sL39363L
(F6.938625877504319
L39377L
tp402
sL29333L
(F2.0
L29342L
tp403
sL26605L
(F22.87500927856321
L26653L
tp404
sL23072L
(F0.43732650010676916
L23081L
tp405
sL21144L
(F282.48275862068965
L21222L
tp406
sL25242L
(F1.7668753766284753
L25318L
tp407
sL31392L
(F3.2
L31397L
tp408
sL29342L
(F4.0
L29398L
tp409
sL27296L
(F1.0
L27324L
tp410
sL30832L
(F1.0
L30850L
tp411
sL38497L
(F25.12522164182681
L38528L
tp412
sL17344L
(F1.2549019607843137
L17353L
tp413
sL25713L
(F3.9130765247873867
L25726L
tp414
sL19112L
(F70.62068965517241
L19144L
tp415
sL23324L
(F6.053015609125334
L23376L
tp416
sL36780L
(F2.0
L36794L
tp417
sL17072L
(F2.1015905592611595
L17106L
tp418
sL29128L
(F2.0
L29137L
tp419
sL17523L
(F32.0
L17537L
tp420
sL35280L
(F1.0
L35285L
tp421
sL37558L
(F1.0
L37606L
tp422
sL27324L
(F2.0
L27329L
tp423
sL36576L
(F4.0
L36597L
tp424
sL28149L
(F5.333333333333333
L28157L
tp425
sL32544L
(F1.0
L32810L
tp426
sL26059L
(F360.1399060694308
L26064L
tp427
sL19144L
(F141.24137931034483
L19399L
tp428
sL26743L
(F183.00007422850567
L26756L
tp429
sL25378L
(F180.0699530347154
L25417L
tp430
sL27643L
(F1.6
L27659L
tp431
sL35536L
(F1.0
L35543L
tp432
sL17106L
(F4.203181118522319
L17134L
tp433
sL26478L
(F360.1399060694308
L26483L
tp434
sL29398L
(F8.0
L29423L
tp435
sL35543L
(F2.0
L35553L
tp436
sL19528L
(F0.1571222386850219
L19551L
tp437
sL31454L
(F2.0
L31466L
tp438
sL22453L
(F0.03455562489430536
L22462L
tp439
sL23264L
(F0.4665679462353343
L23298L
tp440
sL35553L
(F2.0
L35555L
tp441
sL35555L
(F0.7272727272727273
L35557L
tp442
sL38694L
(F29.23756413116217
L38718L
tp443
sL25318L
(F45.01748825867885
L25324L
tp444
sL39377L
(F13.877251755008638
L39384L
tp445
sL35560L
(F4.0
L35572L
tp446
sL31466L
(F1.0
L31616L
tp447
sL25324L
(F90.0349765173577
L25330L
tp448
sL17134L
(F0.6888664648503195
L17151L
tp449
sL29423L
(F1.6
L29430L
tp450
sL37616L
(F2.0
L37616L
tp451
sL30504L
(F1.3333333333333333
L30524L
tp452
sL25330L
(F180.0699530347154
L25340L
tp453
sL39667L
(F1.0
L39708L
tp454
sL35572L
(F2.6666666666666665
L35595L
tp455
sL25726L
(F7.826153049574773
L25758L
tp456
sL27384L
(F1.3333333333333333
L27393L
tp457
sL23829L
(F5.356792185831711
L23856L
tp458
sL25340L
(F360.1399060694308
L25345L
tp459
sL17152L
(F4.0
L17159L
tp460
sL34944L
(F1.0
L34947L
tp461
sL23298L
(F1.5132539022813336
L23313L
tp462
sL28576L
(F4.0
L28605L
tp463
sL28768L
(F0.8
L28802L
tp464
sL17159L
(F7.812134938610084
L17177L
tp465
sL25352L
(F45.01748825867885
L25361L
tp466
sL30850L
(F1.0
L30933L
tp467
sL38017L
(F1.452334907563194
L38025L
tp468
sL22317L
(F10.666666666666666
L22356L
tp469
sL35600L
(F2.0
L35621L
tp470
sL25361L
(F90.0349765173577
L25378L
tp471
sL37376L
(F1.0
L37393L
tp472
sL39760L
(F2.0
L39770L
tp473
sL27417L
(F2.0
L27426L
tp474
sL29466L
(F3.5555555555555554
L29471L
tp475
sL39708L
(F2.0
L39722L
tp476
sL39648L
(F1.0
L39667L
tp477
sL29471L
(F0.8888888888888888
L29476L
tp478
sL17184L
(F1.0
L17195L
tp479
sL27440L
(F1.3333333333333333
L27443L
tp480
sL27426L
(F4.0
L27434L
tp481
sL29476L
(F1.7777777777777777
L29491L
tp482
sL35621L
(F4.0
L35631L
tp483
sL37671L
(F2.0
L37684L
tp484
sL21713L
(F3.944150216658642
L21740L
tp485
sL17195L
(F2.0
L17256L
tp486
sL20274L
(F13.044585987261147
L20313L
tp487
sL35631L
(F8.0
L35645L
tp488
sL39728L
(F2.0
L39752L
tp489
sL17544L
(F16.0
L17558L
tp490
sL29491L
(F0.6066350710900474
L29514L
tp491
sL37684L
(F1.6
L37698L
tp492
sL38025L
(F0.5195013792294523
L38038L
tp493
sL22403L
(F682.6666666666666
L22413L
tp494
sL29151L
(F4.0
L29156L
tp495
sL38672L
(F29.23756413116217
L38680L
tp496
sL27456L
(F1.0
L27468L
tp497
sL13792L
(F8.0
L13810L
tp498
sL37698L
(F0.30226955625699653
L37701L
tp499
sL32216L
(F1.4970760233918128
L32218L
tp500
sL37701L
(F0.2625839840825789
L37706L
tp501
sL21032L
(F1.9929448972144508
L21082L
tp502
sL21321L
(F70.62068965517241
L21329L
tp503
sL29514L
(F1.2132701421800949
L29529L
tp504
sL14008L
(F1.855072463768116
L14021L
tp505
sL27468L
(F2.0
L27477L
tp506
sL18168L
(F64.0
L18179L
tp507
sL25422L
(F0.73785489108848
L25426L
tp508
sL36258L
(F512.0
L36272L
tp509
sL23376L
(F1.5032916618878311
L23424L
tp510
sL21329L
(F141.24137931034483
L21341L
tp511
sL25426L
(F0.1571040392771335
L25440L
tp512
sL37716L
(F0.15282560417671573
L37734L
tp513
sL27477L
(F4.0
L27486L
tp514
sL2159448L
(F1.0
L2159456L
tp515
sL39770L
(F4.0
L39799L
tp516
sL37007L
(F15.058823529411764
L37009L
tp517
sL21341L
(F0.6309303758471966
L21437L
tp518
sL27486L
(F8.0
L27494L
tp519
sL26223L
(F137.25005567137927
L26232L
tp520
sL2159456L
(F1.0
L2159464L
tp521
sL34960L
(F1.0
L34962L
tp522
sL21307L
(F17.655172413793103
L21313L
tp523
sL33240L
(F8.0
L33250L
tp524
sL27494L
(F16.0
L27511L
tp525
sL23697L
(F0.5361330299663253
L23714L
tp526
sL2159464L
(F1.0
L2159472L
tp527
sL29546L
(F7.111111111111111
L29599L
tp528
sL15847L
(F1.7297297297297298
L15852L
tp529
sL25453L
(F180.0699530347154
L25463L
tp530
sL2159472L
(F1.0
L2159480L
tp531
sL33256L
(F32.0
L33266L
tp532
sL25463L
(F360.1399060694308
L25473L
tp533
sL35704L
(F4.0
L35715L
tp534
sL37753L
(F8.0
L37760L
tp535
sL33658L
(F5.333333333333333
L33671L
tp536
sL2159488L
(F1.0
L2159496L
tp537
sL25473L
(F720.2798121388616
L25478L
tp538
sL35715L
(F1.6
L35729L
tp539
sL23429L
(F1.7164333512303078
L23440L
tp540
sL25478L
(F90.0349765173577
L25488L
tp541
sL21313L
(F35.310344827586206
L21321L
tp542
sL17288L
(F1.0
L17299L
tp543
sL33674L
(F2.6666666666666665
L33723L
tp544
sL31400L
(F3.3684210526315788
L31404L
tp545
sL33108L
(F32.0
L33129L
tp546
sL15245L
(F2.0
L15254L
tp547
sL37774L
(F16.0
L37784L
tp548
sL2159504L
(F1.0
L2159512L
tp549
sL35648L
(F1.0
L35693L
tp550
sL31634L
(F1.0
L31756L
tp551
sL17299L
(F2.0
L17309L
tp552
sL25493L
(F11.254372064669713
L25506L
tp553
sL31264L
(F1.6
L31283L
tp554
sL37784L
(F32.0
L37823L
tp555
sL39584L
(F1.0
L39633L
tp556
sL17309L
(F4.0
L17314L
tp557
sL29599L
(F14.222222222222221
L29617L
tp558
sL15264L
(F3.2
L15269L
tp559
sL19952L
(F6.522292993630574
L20065L
tp560
sL17314L
(F8.0
L17324L
tp561
sL21659L
(F282.48275862068965
L21672L
tp562
sL15269L
(F1.0666666666666667
L15281L
tp563
sL29696L
(F1.0
L29706L
tp564
sL35752L
(F1.3333333333333333
L35762L
tp565
sL35072L
(F1.0
L35074L
tp566
sL23466L
(F1.2010519467429053
L23475L
tp567
sL33266L
(F64.0
L33272L
tp568
sL27566L
(F2.0
L27574L
tp569
sL17328L
(F64.0
L17344L
tp570
sL15281L
(F0.8
L15290L
tp571
sL35762L
(F2.6666666666666665
L35809L
tp572
sL23475L
(F2.4021038934858105
L23487L
tp573
sL27574L
(F4.0
L27590L
tp574
sL25417L
(F1.3588289723583677
L25422L
tp575
sL29624L
(F1.0578512396694215
L29632L
tp576
sL15290L
(F1.6
L15296L
tp577
sL33723L
(F1.1428571428571428
L33731L
tp578
sL29712L
(F2.0
L29714L
tp579
sL25533L
(F1.69821278741207
L25573L
tp580
sL23487L
(F4.804207786971621
L23493L
tp581
sL2159552L
(F1.0
L2159560L
tp582
sL34976L
(F1.0
L34978L
tp583
sL33731L
(F2.2857142857142856
L33753L
tp584
sL26560L
(F34.31251391784482
L26574L
tp585
sL23493L
(F1.145006125912062
L23503L
tp586
sL27590L
(F2.0
L27606L
tp587
sL2159560L
(F1.0
L2159568L
tp588
sL17353L
(F2.5098039215686274
L17369L
tp589
sL17763L
(F85.33333333333333
L17769L
tp590
sL23503L
(F9.486097281991348
L23515L
tp591
sL2159568L
(F1.0
L2159576L
tp592
sL33272L
(F10.666666666666666
L33299L
tp593
sL27606L
(F4.0
L27616L
tp594
sL36449L
(F1.2549019607843137
L36458L
tp595
sL27720L
(F0.8205128205128205
L27751L
tp596
sL17369L
(F0.48484848484848486
L17378L
tp597
sL35168L
(F1.0
L35170L
tp598
sL15323L
(F0.8888888888888888
L15341L
tp599
sL19422L
(F141.24137931034483
L19439L
tp600
sL21472L
(F1.6
L21483L
tp601
sL13136L
(F1.0
L13136L
tp602
sL17378L
(F1.3333333333333333
L17393L
tp603
sL25573L
(F3.6735858860094264
L25578L
tp604
sL35816L
(F2.0
L35822L
tp605
sL33769L
(F2.2857142857142856
L33793L
tp606
sL25578L
(F22.508744129339426
L25591L
tp607
sL35822L
(F4.0
L35833L
tp608
sL27408L
(F1.0
L27417L
tp609
sL15344L
(F1.6
L15371L
tp610
sL22696L
(F3.9083969465648853
L22719L
tp611
sL28744L
(F1.3333333333333333
L28755L
tp612
sL28062L
(F4.0
L28070L
tp613
sL25591L
(F45.01748825867885
L25656L
tp614
sL2159608L
(F1.0
L2159616L
tp615
sL14164L
(F8.904347826086957
L14177L
tp616
sL23546L
(F0.4830023618358828
L23556L
tp617
sL21499L
(F282.48275862068965
L21538L
tp618
sL2159616L
(F1.0
L2159624L
tp619
sL33793L
(F1.5238095238095237
L33801L
tp620
sL23556L
(F11.254372064669713
L23566L
tp621
sL33024L
(F3.2
L33046L
tp622
sL17424L
(F64.0
L17435L
tp623
sL2159624L
(F1.0
L2159632L
tp624
sL33801L
(F1.1428571428571428
L33809L
tp625
sL29706L
(F2.0
L29708L
tp626
sL27659L
(F3.2
L27664L
tp627
sL31756L
(F1.0
L31761L
tp628
sL35854L
(F8.0
L35860L
tp629
sL21857L
(F17.655172413793103
L21874L
tp630
sL15376L
(F1.0
L15680L
tp631
sL33809L
(F2.2857142857142856
L33831L
tp632
sL17582L
(F2.0
L17584L
tp633
sL31766L
(F2.0
L31785L
tp634
sL26851L
(F1.5486602263848108
L26864L
tp635
sL35864L
(F3.2
L35925L
tp636
sL39410L
(F2.7901266955967015
L39417L
tp637
sL23582L
(F90.0349765173577
L23597L
tp638
sL29728L
(F4.266666666666667
L29728L
tp639
sL27824L
(F2.3758700696055683
L27829L
tp640
sL29632L
(F7.111111111111111
L29648L
tp641
sL33831L
(F1.5238095238095237
L33839L
tp642
sL2159656L
(F1.0
L2159664L
tp643
sL31785L
(F1.0
L31810L
tp644
sL38960L
(F10.47587543862422
L38964L
tp645
sL23597L
(F180.0699530347154
L23607L
tp646
sL35088L
(F1.0
L35090L
tp647
sL33839L
(F1.1428571428571428
L33851L
tp648
sL37936L
(F128.0
L37950L
tp649
sL16904L
(F0.6008838684833037
L16909L
tp650
sL32224L
(F3.3684210526315788
L32231L
tp651
sL23607L
(F0.13403325749158132
L23647L
tp652
sL25656L
(F1.8367929430047132
L25693L
tp653
sL29753L
(F2.0
L29790L
tp654
sL19514L
(F564.9655172413793
L19520L
tp655
sL33851L
(F2.2857142857142856
L33931L
tp656
sL37950L
(F256.0
L37984L
tp657
sL19520L
(F0.30885599900089306
L19528L
tp658
sL25440L
(F0.314208078554267
L25453L
tp659
sL26535L
(F34.31251391784482
L26549L
tp660
sL34816L
(F1.0
L34854L
tp661
sL38753L
(F116.95025652464868
L38755L
tp662
sL2159688L
(F1.0
L2159696L
tp663
sL2159696L
(F1.0
L2159704L
tp664
sL26808L
(F17.15625695892241
L26818L
tp665
sL21588L
(F1129.9310344827586
L21615L
tp666
sL37408L
(F1.0
L37416L
tp667
sL2159704L
(F1.0
L2159712L
tp668
sL25693L
(F3.829850545057066
L25698L
tp669
sL29790L
(F4.0
L29809L
tp670
sL23647L
(F0.26806651498316264
L23697L
tp671
sL2159712L
(F1.0
L2159720L
tp672
sL17936L
(F1.0
L17949L
tp673
sL25698L
(F90.0349765173577
L25703L
tp674
sL17509L
(F8.0
L17514L
tp675
sL27751L
(F1.2673267326732673
L27767L
tp676
sL2159720L
(F1.0
L2159728L
tp677
sL38076L
(F512.0
L38084L
tp678
sL17514L
(F16.0
L17523L
tp679
sL35947L
(F2.0
L35955L
tp680
sL21615L
(F2259.862068965517
L21623L
tp681
sL13424L
(F1.0
L13424L
tp682
sL29809L
(F0.8205128205128205
L29833L
tp683
sL35955L
(F4.0
L35966L
tp684
sL34665L
(F2.782608695652174
L34683L
tp685
sL31408L
(F2.0
L31425L
tp686
sL19581L
(F141.24137931034483
L19634L
tp687
sL35966L
(F8.0
L35975L
tp688
sL17769L
(F170.66666666666666
L17775L
tp689
sL27776L
(F0.7757575757575758
L27803L
tp690
sL35008L
(F1.0
L35010L
tp691
sL29536L
(F3.5555555555555554
L29546L
tp692
sL33014L
(F16.0
L33024L
tp693
sL35975L
(F16.0
L35984L
tp694
sL31880L
(F2.0
L31897L
tp695
sL29833L
(F1.641025641025641
L29841L
tp696
sL33931L
(F1.1428571428571428
L33948L
tp697
sL35693L
(F2.0
L35704L
tp698
sL35984L
(F32.0
L35993L
tp699
sL29841L
(F0.810126582278481
L29862L
tp700
sL31136L
(F16.0
L31161L
tp701
sL35296L
(F2.0
L35298L
tp702
sL38038L
(F1.0390027584589046
L38056L
tp703
sL35993L
(F64.0
L36000L
tp704
sL27803L
(F1.1879350348027842
L27824L
tp705
sL33948L
(F2.2857142857142856
L33961L
tp706
sL25758L
(F0.8746530002135383
L25771L
tp707
sL17568L
(F8.0
L17582L
tp708
sL15216L
(F1.0
L15245L
tp709
sL23714L
(F1.0722660599326506
L23744L
tp710
sL26139L
(F720.2798121388616
L26144L
tp711
sL18384L
(F8.827586206896552
L18394L
tp712
sL38056L
(F256.0
L38076L
tp713
sL33961L
(F4.571428571428571
L33966L
tp714
sL37416L
(F2.0
L37428L
tp715
sL25771L
(F2.127426112066783
L25786L
tp716
sL33966L
(F1.1428571428571428
L34077L
tp717
sL29872L
(F2.0
L29884L
tp718
sL28872L
(F2.0
L28874L
tp719
sL19634L
(F282.48275862068965
L19701L
tp720
sL22387L
(F170.66666666666666
L22393L
tp721
sL27829L
(F1.1879350348027842
L27841L
tp722
sL36041L
(F1.1277533039647578
L36046L
tp723
sL25786L
(F408.3741290784894
L25796L
tp724
sL36027L
(F256.0
L36041L
tp725
sL29884L
(F4.0
L29905L
tp726
sL23744L
(F0.05751448646816064
L23757L
tp727
sL26144L
(F90.0349765173577
L26154L
tp728
sL24659L
(F31.911391681001746
L24744L
tp729
sL25796L
(F240.09327071295388
L25824L
tp730
sL27846L
(F1.1879350348027842
L27858L
tp731
sL33320L
(F768.0
L33340L
tp732
sL38088L
(F7.937984496124031
L38110L
tp733
sL32972L
(F16.0
L32977L
tp734
sL39799L
(F2.0
L39816L
tp735
sL23757L
(F14.628571428571428
L23767L
tp736
sL36046L
(F0.9561157796451915
L36055L
tp737
sL17615L
(F2.0
L17629L
tp738
sL31952L
(F1.6
L31975L
tp739
sL29905L
(F1.3333333333333333
L29933L
tp740
sL27858L
(F2.3758700696055683
L27863L
tp741
sL33184L
(F109.71428571428571
L33200L
tp742
sL30464L
(F2.0
L30469L
tp743
sL2159592L
(F1.0
L2159600L
tp744
sL17273L
(F2.0
L17288L
tp745
sL36388L
(F0.7272727272727273
L36393L
tp746
sL28841L
(F1.7777777777777777
L28866L
tp747
sL39384L
(F1.3950633477983507
L39410L
tp748
sL17629L
(F4.0
L17645L
tp749
sL38110L
(F15.875968992248062
L38116L
tp750
sL25824L
(F360.1399060694308
L25846L
tp751
sL35024L
(F1.0
L35026L
tp752
sL31616L
(F1.0
L31634L
tp753
sL27875L
(F2.3758700696055683
L27880L
tp754
sL36068L
(F16.0
L36078L
tp755
sL32977L
(F32.0
L32994L
tp756
sL27880L
(F1.1879350348027842
L27892L
tp757
sL28241L
(F0.6956521739130435
L28246L
tp758
sL15911L
(F2.1880341880341883
L15933L
tp759
sL21740L
(F4.923076923076923
L21760L
tp760
sL17645L
(F1.4545454545454546
L17647L
tp761
sL36078L
(F32.0
L36089L
tp762
sL13552L
(F1.2307692307692308
L13552L
tp763
sL27176L
(F1.7911909404547364
L27206L
tp764
sL23796L
(F1.9393939393939394
L23806L
tp765
sL19701L
(F564.9655172413793
L19877L
tp766
sL25846L
(F0.5361330299663253
L25906L
tp767
sL17961L
(F8.0
L17963L
tp768
sL29944L
(F2.2857142857142856
L29973L
tp769
sL27897L
(F1.1879350348027842
L27911L
tp770
sL34220L
(F1.3333333333333333
L34225L
tp771
sL23806L
(F2.6783960929158557
L23829L
tp772
sL30933L
(F2.0
L30935L
tp773
sL17664L
(F8.0
L17671L
tp774
sL23424L
(F0.8582166756151539
L23429L
tp775
sL26707L
(F22.87500927856321
L26735L
tp776
sL17963L
(F16.0
L17969L
tp777
sL23767L
(F2.6666666666666665
L23783L
tp778
sL14209L
(F1.0260521042084167
L14227L
tp779
sL32008L
(F1.6842105263157894
L32029L
tp780
sL30935L
(F4.0
L30941L
tp781
sL17678L
(F32.0
L17685L
tp782
sL27920L
(F2.0
L27927L
tp783
sL31072L
(F32.0
L31097L
tp784
sL34912L
(F1.0
L34915L
tp785
sL35232L
(F1.0
L35234L
tp786
sL14328L
(F8.591504981646565
L14341L
tp787
sL29973L
(F4.571428571428571
L29976L
tp788
sL2159600L
(F1.0
L2159608L
tp789
sL38168L
(F7.937984496124031
L38181L
tp790
sL26159L
(F2.144532119865301
L26174L
tp791
sL34077L
(F1.3333333333333333
L34113L
tp792
sL31104L
(F8.0
L31129L
tp793
sL17696L
(F128.0
L17707L
tp794
sL32035L
(F1.1228070175438596
L32133L
tp795
sL21796L
(F1129.9310344827586
L21817L
tp796
sL38181L
(F15.875968992248062
L38217L
tp797
sL32914L
(F16.0
L32920L
tp798
sL39480L
(F1.6303753761612585
L39499L
tp799
sL33671L
(F10.666666666666666
L33674L
tp800
sL36141L
(F64.0
L36163L
tp801
sL27936L
(F2.0
L27936L
tp802
sL13616L
(F1.0
L13666L
tp803
sL2159496L
(F1.0
L2159504L
tp804
sL17714L
(F512.0
L17724L
tp805
sL31283L
(F0.8
L31289L
tp806
sL25912L
(F2.144532119865301
L25922L
tp807
sL31816L
(F2.0
L31841L
tp808
sL30011L
(F8.0
L30032L
tp809
sL23869L
(F1.1857621602489186
L23905L
tp810
sL36120L
(F32.0
L36141L
tp811
sL17728L
(F21.333333333333332
L17739L
tp812
sL28896L
(F1.0
L28907L
tp813
sL25922L
(F4.289064239730602
L25928L
tp814
sL36163L
(F128.0
L36177L
tp815
sL27664L
(F0.8888888888888888
L27687L
tp816
sL2159664L
(F1.0
L2159672L
tp817
sL21832L
(F6.522292993630574
L21840L
tp818
sL17739L
(F42.666666666666664
L17763L
tp819
sL32994L
(F64.0
L33006L
tp820
sL22510L
(F6.7368421052631575
L22516L
tp821
sL38224L
(F10.583979328165375
L38234L
tp822
sL36177L
(F102.4
L36210L
tp823
sL25938L
(F17.15625695892241
L25955L
tp824
sL39139L
(F27.935667836331252
L39178L
tp825
sL32029L
(F0.8421052631578947
L32035L
tp826
sL34134L
(F1.3333333333333333
L34148L
tp827
sL38116L
(F3.9689922480620154
L38168L
tp828
sL38234L
(F21.16795865633075
L38265L
tp829
sL38799L
(F7.735428423886983
L38822L
tp830
sL30048L
(F3.2
L30061L
tp831
sL23905L
(F2.371524320497837
L23930L
tp832
sL13666L
(F2.0
L13712L
tp833
sL25955L
(F0.8109306382614603
L25985L
tp834
sL34148L
(F2.6666666666666665
L34168L
tp835
sL15799L
(F3.2
L15808L
tp836
sL28006L
(F2.0
L28062L
tp837
sL35729L
(F0.6956521739130435
L35736L
tp838
sL15720L
(F1.0
L15734L
tp839
sL17504L
(F4.0
L17509L
tp840
sL23783L
(F5.333333333333333
L23788L
tp841
sL17775L
(F341.3333333333333
L17788L
tp842
sL30064L
(F1.8823529411764706
L30079L
tp843
sL21874L
(F70.62068965517241
L21891L
tp844
sL15734L
(F2.0
L15747L
tp845
sL18416L
(F141.24137931034483
L18426L
tp846
sL36216L
(F512.0
L36228L
tp847
sL38265L
(F42.3359173126615
L38283L
tp848
sL23930L
(F1.4067965080837141
L23959L
tp849
sL13072L
(F1.0
L13072L
tp850
sL30079L
(F0.9411764705882353
L30086L
tp851
sL17792L
(F16.0
L17816L
tp852
sL25985L
(F1.6218612765229206
L25990L
tp853
sL24464L
(F11.254372064669713
L24474L
tp854
sL15747L
(F4.0
L15791L
tp855
sL32133L
(F2.245614035087719
L32191L
tp856
sL30086L
(F1.8823529411764706
L30121L
tp857
sL37441L
(F1.1428571428571428
L37452L
tp858
sL36232L
(F256.0
L36258L
tp859
sL23788L
(F3.0476190476190474
L23796L
tp860
sL38283L
(F21.16795865633075
L38286L
tp861
sL37162L
(F2.2857142857142856
L37179L
tp862
sL38286L
(F1.8273477581976356
L38296L
tp863
sL37101L
(F8.0
L37110L
tp864
sL26000L
(F1.7668753766284753
L26030L
tp865
sL2159512L
(F1.0
L2159520L
tp866
sL34195L
(F2.6666666666666665
L34203L
tp867
sL21908L
(F0.3142444773700438
L21913L
tp868
sL17440L
(F64.0
L17451L
tp869
sL28826L
(F3.2
L28832L
tp870
sL23959L
(F2.8135930161674283
L23974L
tp871
sL38296L
(F3.6546955163952712
L38334L
tp872
sL34203L
(F1.3333333333333333
L34212L
tp873
sL22484L
(F0.05637014044920296
L22499L
tp874
sL18330L
(F1.2307692307692308
L18344L
tp875
sL29440L
(F1.7777777777777777
L29466L
tp876
sL15941L
(F1.068893528183716
L15945L
tp877
sL21920L
(F1.0
L22015L
tp878
sL35056L
(F1.0
L35058L
tp879
sL37760L
(F16.0
L37774L
tp880
sL34212L
(F2.6666666666666665
L34220L
tp881
sL27206L
(F3.5823818809094727
L27229L
tp882
sL28070L
(F1.3333333333333333
L28096L
tp883
sL19880L
(F141.24137931034483
L19890L
tp884
sL30121L
(F1.5238095238095237
L30124L
tp885
sL13739L
(F0.5714285714285714
L13751L
tp886
sL23980L
(F11.254372064669713
L23990L
tp887
sL26030L
(F180.0699530347154
L26040L
tp888
sL15791L
(F1.6
L15799L
tp889
sL17840L
(F85.33333333333333
L17853L
tp890
sL34225L
(F2.6666666666666665
L34233L
tp891
sL19890L
(F3.261146496815287
L19952L
tp892
sL39440L
(F13.967833918165626
L39454L
tp893
sL23576L
(F45.01748825867885
L23582L
tp894
sL13751L
(F1.1428571428571428
L13760L
tp895
sL26040L
(F360.1399060694308
L26045L
tp896
sL34233L
(F1.3333333333333333
L34245L
tp897
sL23996L
(F45.01748825867885
L24006L
tp898
sL26045L
(F180.0699530347154
L26059L
tp899
sL38334L
(F7.3093910327905425
L38351L
tp900
sL32191L
(F4.491228070175438
L32211L
tp901
sL30144L
(F4.571428571428571
L30147L
tp902
sL2159520L
(F1.0
L2159528L
tp903
sL23440L
(F0.6005259733714526
L23466L
tp904
sL30147L
(F1.1428571428571428
L30152L
tp905
sL34245L
(F2.6666666666666665
L34255L
tp906
sL24006L
(F90.0349765173577
L24012L
tp907
sL17863L
(F341.3333333333333
L17878L
tp908
sL30152L
(F2.2857142857142856
L30165L
tp909
sL14583L
(F0.8937377263801004
L14598L
tp910
sL24012L
(F180.0699530347154
L24022L
tp911
sL25506L
(F22.508744129339426
L25533L
tp912
sL38351L
(F14.618782065581085
L38359L
tp913
sL34256L
(F1.5238095238095237
L34274L
tp914
sL37216L
(F2.0
L37242L
tp915
sL20387L
(F1.6305732484076434
L20419L
tp916
sL30165L
(F4.571428571428571
L30170L
tp917
sL24022L
(F120.04663535647694
L24034L
tp918
sL36089L
(F30.11764705882353
L36115L
tp919
sL36312L
(F512.0
L36324L
tp920
sL14244L
(F2.1478762454116413
L14278L
tp921
sL30170L
(F2.2857142857142856
L30184L
tp922
sL30124L
(F0.7901234567901234
L30135L
tp923
sL15839L
(F0.8648648648648649
L15847L
tp924
sL38368L
(F12.562610820913404
L38427L
tp925
sL37456L
(F4.0
L37478L
tp926
sL24034L
(F240.09327071295388
L24043L
tp927
sL26085L
(F4.743048640995674
L26119L
tp928
sL39058L
(F6.983916959082813
L39129L
tp929
sL38481L
(F6.281305410456702
L38488L
tp930
sL34280L
(F2.2857142857142856
L34310L
tp931
sL24043L
(F480.18654142590776
L24070L
tp932
sL15852L
(F0.927536231884058
L15863L
tp933
sL30192L
(F8.0
L30207L
tp934
sL2159528L
(F1.0
L2159536L
tp935
sL27329L
(F4.0
L27381L
tp936
sL17909L
(F2.0
L17914L
tp937
sL15863L
(F1.855072463768116
L15894L
tp938
sL13816L
(F8.0
L13826L
tp939
sL17914L
(F1.0
L17925L
tp940
sL26257L
(F1.971274697301093
L26267L
tp941
sL28157L
(F1.7777777777777777
L28180L
tp942
sL22015L
(F2.0
L22040L
tp943
sL32256L
(F1.0
L32467L
tp944
sL37120L
(F5.333333333333333
L37138L
tp945
sL25488L
(F180.0699530347154
L25493L
tp946
sL29648L
(F1.2132701421800949
L29653L
tp947
sL27520L
(F1.0666666666666667
L27523L
tp948
sL24070L
(F240.09327071295388
L24092L
tp949
sL26119L
(F180.0699530347154
L26129L
tp950
sL13832L
(F8.0
L13851L
tp951
sL22624L
(F0.3855421686746988
L22647L
tp952
sL36366L
(F2.0
L36376L
tp953
sL35104L
(F1.0
L35106L
tp954
sL34320L
(F2.6666666666666665
L34350L
tp955
sL26129L
(F360.1399060694308
L26139L
tp956
sL28180L
(F1.7777777777777777
L28241L
tp957
sL32240L
(F3.2
L32248L
tp958
sL15894L
(F0.5470085470085471
L15907L
tp959
sL28249L
(F0.6956521739130435
L28261L
tp960
sL36376L
(F1.3333333333333333
L36380L
tp961
sL36800L
(F8.0
L36815L
tp962
sL38427L
(F25.12522164182681
L38439L
tp963
sL36380L
(F1.1428571428571428
L36388L
tp964
sL17949L
(F2.0
L17951L
tp965
sL18192L
(F1.0
L18264L
tp966
sL17951L
(F4.0
L17961L
tp967
sL30240L
(F1.0
L30289L
tp968
sL2159536L
(F1.0
L2159544L
tp969
sL15907L
(F1.0940170940170941
L15911L
tp970
sL36946L
(F64.0
L36954L
tp971
sL38439L
(F1.221888692085392
L38467L
tp972
sL36393L
(F0.8421052631578947
L36397L
tp973
sL26154L
(F180.0699530347154
L26159L
tp974
sL17671L
(F16.0
L17678L
tp975
sL36397L
(F1.6842105263157894
L36428L
tp976
sL27229L
(F5.054085910255929
L27247L
tp977
sL34352L
(F2.6666666666666665
L34401L
tp978
sL17969L
(F32.0
L17979L
tp979
sL13760L
(F8.0
L13772L
tp980
sL22069L
(F21.333333333333332
L22079L
tp981
sL31312L
(F1.6842105263157894
L31329L
tp982
sL13880L
(F0.5714285714285714
L13938L
tp983
sL17979L
(F64.0
L17990L
tp984
sL15933L
(F0.534446764091858
L15941L
tp985
sL26174L
(F4.289064239730602
L26180L
tp986
sL22079L
(F42.666666666666664
L22085L
tp987
sL27536L
(F1.0
L27566L
tp988
sL38467L
(F3.140652705228351
L38481L
tp989
sL26180L
(F8.578128479461204
L26190L
tp990
sL22085L
(F1.9541984732824427
L22095L
tp991
sL31329L
(F0.8421052631578947
L31335L
tp992
sL15945L
(F2.137787056367432
L15964L
tp993
sL28832L
(F3.2
L28841L
tp994
sL36428L
(F3.3684210526315788
L36443L
tp995
sL17648L
(F4.0
L17658L
tp996
sL26190L
(F17.15625695892241
L26200L
tp997
sL22095L
(F3.9083969465648853
L22105L
tp998
sL18000L
(F4.0
L18006L
tp999
sL30289L
(F2.0
L30296L
tp1000
sL34872L
(F0.4
L34897L
tp1001
sL30296L
(F0.6666666666666666
L30324L
tp1002
sL17853L
(F256.0
L17863L
tp1003
sL21672L
(F1.972075108329321
L21713L
tp1004
sL15964L
(F0.5253976398152899
L15983L
tp1005
sL16314L
(F1.4311670160726764
L16338L
tp1006
sL18014L
(F32.0
L18020L
tp1007
sL22111L
(F15.633587786259541
L22134L
tp1008
sL16656L
(F2.515970515970516
L16710L
tp1009
sL13216L
(F2.0
L13216L
tp1010
sL26212L
(F68.62502783568964
L26223L
tp1011
sL34408L
(F2.6666666666666665
L34467L
tp1012
sL36458L
(F0.5953488372093023
L36463L
tp1013
sL31335L
(F1.1228070175438596
L31390L
tp1014
sL24172L
(F960.3730828518155
L24177L
tp1015
sL36463L
(F1.0364372469635628
L36481L
tp1016
sL18032L
(F16.0
L18038L
tp1017
sL33384L
(F768.0
L33396L
tp1018
sL13938L
(F1.1428571428571428
L13962L
tp1019
sL15808L
(F1.5238095238095237
L15839L
tp1020
sL24510L
(F180.0699530347154
L24542L
tp1021
sL22134L
(F31.267175572519083
L22182L
tp1022
sL15996L
(F4.0
L16053L
tp1023
sL21264L
(F8.827586206896552
L21307L
tp1024
sL17685L
(F64.0
L17696L
tp1025
sL38528L
(F14.618782065581085
L38530L
tp1026
sL37824L
(F3.2
L37866L
tp1027
sL38530L
(F3.140652705228351
L38539L
tp1028
sL18400L
(F35.310344827586206
L18410L
tp1029
sL2159648L
(F1.0
L2159656L
tp1030
sL23974L
(F5.627186032334857
L23980L
tp1031
sL13712L
(F0.2857142857142857
L13739L
tp1032
sL13962L
(F2.2857142857142856
L13966L
tp1033
sL38539L
(F5.662163183757222
L38548L
tp1034
sL35040L
(F1.0
L35042L
tp1035
sL13966L
(F4.571428571428571
L13984L
tp1036
sL23856L
(F1.4562847639350864
L23869L
tp1037
sL18064L
(F32.0
L18075L
tp1038
sL29976L
(F1.1428571428571428
L29981L
tp1039
sL28306L
(F14.222222222222221
L28336L
tp1040
sL38548L
(F11.324326367514445
L38577L
tp1041
sL36336L
(F1.0
L36366L
tp1042
sL20992L
(F564.9655172413793
L21015L
tp1043
sL15983L
(F2.0
L15996L
tp1044
sL18128L
(F16.0
L18134L
tp1045
sL30658L
(F5.333333333333333
L30672L
tp1046
sL33304L
(F768.0
L33313L
tp1047
sL13984L
(F1.391304347826087
L13992L
tp1048
sL37488L
(F1.0
L37503L
tp1049
sL26275L
(F1.971274697301093
L26304L
tp1050
sL36516L
(F1.0118577075098814
L36538L
tp1051
sL22182L
(F0.28193832599118945
L22206L
tp1052
sL20081L
(F6.522292993630574
L20274L
tp1053
sL34472L
(F2.6666666666666665
L34526L
tp1054
sL31200L
(F1.0
L31230L
tp1055
sL18090L
(F64.0
L18101L
tp1056
sL31904L
(F1.0
L31950L
tp1057
sL36064L
(F16.0
L36068L
tp1058
sL29981L
(F1.5238095238095237
L29998L
tp1059
sL28336L
(F2.098360655737705
L28342L
tp1060
sL38577L
(F3.9030142411541813
L38585L
tp1061
sL2159480L
(F1.0
L2159488L
tp1062
sL33200L
(F9.142857142857146
L33228L
tp1063
sL16053L
(F1.391304347826087
L16072L
tp1064
sL28342L
(F0.8648648648648649
L28354L
tp1065
sL18104L
(F4.0
L18115L
tp1066
sL30324L
(F1.0
L30358L
tp1067
sL24744L
(F1.8820455368618525
L24749L
tp1068
sL14305L
(F2.1478762454116413
L14315L
tp1069
sL30398L
(F1.0
L30426L
tp1070
sL24255L
(F2.8135930161674283
L24279L
tp1071
sL26304L
(F3.942549394602186
L26319L
tp1072
sL26912L
(F7.456706487238704
L26930L
tp1073
sL18038L
(F32.0
L18044L
tp1074
sL38598L
(F1.4606212797165612
L38608L
tp1075
sL39201L
(F111.74267134532501
L39230L
tp1076
sL16072L
(F2.782608695652174
L16087L
tp1077
sL36553L
(F6.7368421052631575
L36567L
tp1078
sL22218L
(F0.32799487508007685
L22235L
tp1079
sL17584L
(F1.0
L17596L
tp1080
sL26319L
(F1.971274697301093
L26362L
tp1081
sL38608L
(F3.6546955163952712
L38622L
tp1082
sL17824L
(F128.0
L17834L
tp1083
sL30672L
(F10.666666666666666
L30676L
tp1084
sL26574L
(F17.15625695892241
L26584L
tp1085
sL18134L
(F32.0
L18145L
tp1086
sL24279L
(F5.627186032334857
L24285L
tp1087
sL33060L
(F4.266666666666667
L33078L
tp1088
sL22235L
(F0.6559897501601537
L22247L
tp1089
sL28381L
(F4.923076923076923
L28383L
tp1090
sL38622L
(F7.3093910327905425
L38645L
tp1091
sL30432L
(F4.0
L30456L
tp1092
sL19408L
(F70.62068965517241
L19422L
tp1093
sL27767L
(F2.5346534653465347
L27776L
tp1094
sL16100L
(F11.130434782608695
L16123L
tp1095
sL24295L
(F22.508744129339426
L24301L
tp1096
sL18152L
(F2.0
L18163L
tp1097
sL37328L
(F2.2857142857142856
L37341L
tp1098
sL28394L
(F10.666666666666666
L28425L
tp1099
sL28360L
(F4.0
L28370L
tp1100
sL24301L
(F45.01748825867885
L24311L
tp1101
sL31016L
(F2.0
L31033L
tp1102
sL35248L
(F1.0
L35267L
tp1103
sL38645L
(F14.618782065581085
L38672L
tp1104
sL24311L
(F90.0349765173577
L24317L
tp1105
sL34552L
(F1.0666666666666667
L34557L
tp1106
sL36820L
(F32.0
L36826L
tp1107
sL26362L
(F3.942549394602186
L26385L
tp1108
sL28287L
(F7.111111111111111
L28306L
tp1109
sL34557L
(F0.42105263157894735
L34580L
tp1110
sL31975L
(F0.8
L31981L
tp1111
sL36608L
(F8.0
L36624L
tp1112
sL26240L
(F3.942549394602186
L26257L
tp1113
sL17707L
(F256.0
L17714L
tp1114
sL34168L
(F1.3333333333333333
L34179L
tp1115
sL33632L
(F2.6666666666666665
L33658L
tp1116
sL24327L
(F360.1399060694308
L24332L
tp1117
sL14089L
(F2.2857142857142856
L14105L
tp1118
sL34992L
(F1.0
L34994L
tp1119
sL36624L
(F4.0
L36624L
tp1120
sL2159576L
(F1.0
L2159584L
tp1121
sL36960L
(F7.529411764705882
L36965L
tp1122
sL36272L
(F1024.0
L36308L
tp1123
sL34580L
(F1.391304347826087
L34665L
tp1124
sL26389L
(F1.971274697301093
L26445L
tp1125
sL33753L
(F1.5238095238095237
L33761L
tp1126
sL38680L
(F14.618782065581085
L38689L
tp1127
sL14105L
(F4.571428571428571
L14112L
tp1128
sL18394L
(F17.655172413793103
L18400L
tp1129
sL14177L
(F2.1069958847736627
L14209L
tp1130
sL28448L
(F8.0
L28487L
tp1131
sL38689L
(F29.23756413116217
L38694L
tp1132
sL16223L
(F1.257985257985258
L16246L
tp1133
sL23515L
(F18.972194563982697
L23546L
tp1134
sL39328L
(F31.71616780391884
L39338L
tp1135
sL24359L
(F9.486097281991348
L24403L
tp1136
sL2159680L
(F1.0
L2159688L
tp1137
sL36000L
(F128.0
L36027L
tp1138
sL14124L
(F2.226086956521739
L14134L
tp1139
sL25906L
(F1.0722660599326506
L25912L
tp1140
sL28976L
(F1.0
L28978L
tp1141
sL34928L
(F1.0
L34931L
tp1142
sL36488L
(F3.3684210526315788
L36516L
tp1143
sL27863L
(F1.1879350348027842
L27875L
tp1144
sL2159544L
(F1.0
L2159552L
tp1145
sL14134L
(F4.452173913043478
L14164L
tp1146
sL26385L
(F7.885098789204372
L26389L
tp1147
sL2159440L
(F1.0
L2159448L
tp1148
sL38718L
(F58.47512826232434
L38753L
tp1149
sL30528L
(F2.0
L30560L
tp1150
sL2159584L
(F1.0
L2159592L
tp1151
sL14792L
(F2.226086956521739
L14837L
tp1152
sL33761L
(F1.1428571428571428
L33769L
tp1153
sL37024L
(F1.0
L37059L
tp1154
sL37706L
(F0.18242565349507434
L37716L
tp1155
sL26445L
(F3.942549394602186
L26462L
tp1156
sL38488L
(F12.562610820913404
L38497L
tp1157
sL36687L
(F2.0
L36697L
tp1158
sL28496L
(F1.0
L28496L
tp1159
sL2159672L
(F1.0
L2159680L
tp1160
sL24403L
(F18.972194563982697
L24424L
tp1161
sL22356L
(F21.333333333333332
L22371L
tp1162
sL16214L
(F1.695364238410596
L16223L
tp1163
sL21817L
(F2259.862068965517
L21825L
tp1164
sL18264L
(F0.6666666666666666
L18277L
tp1165
sL36697L
(F1.3333333333333333
L36721L
tp1166
sL35392L
(F1.0
L35429L
tp1167
sL28432L
(F1.9541984732824427
L28442L
tp1168
sL13088L
(F0.8888888888888888
L13088L
tp1169
sL30560L
(F4.0
L30569L
tp1170
sL33424L
(F1.0
L33512L
tp1171
sL36752L
(F4.0
L36780L
tp1172
sL22371L
(F42.666666666666664
L22377L
tp1173
sL22048L
(F5.333333333333333
L22063L
tp1174
sL18277L
(F0.8
L18308L
tp1175
sL28519L
(F2.0
L28537L
tp1176
sL38760L
(F30.941713695547932
L38770L
tp1177
sL30569L
(F4.0
L30608L
tp1178
sL30032L
(F1.3333333333333333
L30048L
tp1179
sL30480L
(F12.8
L30480L
tp1180
sL15680L
(F1.0
L15720L
tp1181
sL36721L
(F0.5441020191285866
L36739L
tp1182
sL38770L
(F3.8677142119434915
L38799L
tp1183
sL29933L
(F2.6666666666666665
L29938L
tp1184
sL16246L
(F2.515970515970516
L16314L
tp1185
sL26488L
(F8.578128479461204
L26494L
tp1186
sL22393L
(F341.3333333333333
L22403L
tp1187
sL23990L
(F22.508744129339426
L23996L
tp1188
sL37866L
(F32.0
L37873L
tp1189
sL26494L
(F17.15625695892241
L26508L
tp1190
sL14112L
(F1.1130434782608696
L14124L
tp1191
sL34688L
(F4.571428571428571
L34716L
tp1192
sL28992L
(F1.0
L29031L
tp1193
sL36739L
(F0.43648763853367434
L36751L
tp1194
sL18308L
(F1.6
L18330L
tp1195
sL30358L
(F2.0
L30398L
tp1196
sL34113L
(F2.6666666666666665
L34134L
tp1197
sL19568L
(F70.62068965517241
L19581L
tp1198
sL28554L
(F2.0
L28559L
tp1199
sL35479L
(F4.0
L35527L
tp1200
sL26508L
(F34.31251391784482
L26525L
tp1201
sL22413L
(F1365.3333333333333
L22425L
tp1202
sL28559L
(F4.0
L28565L
tp1203
sL30608L
(F1.0
L30612L
tp1204
sL37528L
(F0.6666666666666666
L37558L
tp1205
sL24563L
(F720.2798121388616
L24592L
tp1206
sL30612L
(F2.0
L30622L
tp1207
sL28565L
(F2.0
L28572L
tp1208
sL29184L
(F2.0
L29193L
tp1209
sL30207L
(F1.641025641025641
L30238L
tp1210
sL14232L
(F1.0739381227058207
L14244L
tp1211
sL22425L
(F2730.6666666666665
L22448L
tp1212
sL24474L
(F22.508744129339426
L24484L
tp1213
sL38868L
(F9.151255315481606
L38883L
tp1214
sL26525L
(F17.15625695892241
L26535L
tp1215
sL30622L
(F4.0
L30646L
tp1216
sL34720L
(F4.571428571428571
L34754L
tp1217
sL19440L
(F141.24137931034483
L19503L
tp1218
sL26267L
(F3.942549394602186
L26275L
tp1219
sL24484L
(F45.01748825867885
L24490L
tp1220
sL27616L
(F1.0
L27643L
tp1221
sL38822L
(F15.470856847773966
L38863L
tp1222
sL17393L
(F2.6666666666666665
L17408L
tp1223
sL22976L
(F85.33333333333333
L22986L
tp1224
sL35936L
(F1.0
L35947L
tp1225
sL24490L
(F90.0349765173577
L24500L
tp1226
sL22297L
(F5.333333333333333
L22317L
tp1227
sL22448L
(F0.07281431288833452
L22453L
tp1228
sL24209L
(F2.912569527870173
L24255L
tp1229
sL37984L
(F128.0
L38017L
tp1230
sL24500L
(F90.0349765173577
L24510L
tp1231
sL26549L
(F17.15625695892241
L26560L
tp1232
sL30646L
(F2.6666666666666665
L30658L
tp1233
sL33088L
(F16.0
L33098L
tp1234
sL22516L
(F13.473684210526315
L22522L
tp1235
sL36794L
(F4.0
L36800L
tp1236
sL18363L
(F2.206896551724138
L18378L
tp1237
sL22462L
(F0.02818507022460148
L22484L
tp1238
sL28608L
(F1.0
L28612L
tp1239
sL23200L
(F0.608527707621453
L23254L
tp1240
sL39824L
(F1.0
L39846L
tp1241
sL20419L
(F3.261146496815287
L20474L
tp1242
sL30710L
(F21.333333333333332
L30724L
tp1243
sL14278L
(F1.0739381227058207
L14305L
tp1244
sL17456L
(F64.0
L17463L
tp1245
sL34760L
(F4.571428571428571
L34802L
tp1246
sL21440L
(F3.2056349051066326
L21451L
tp1247
sL18378L
(F4.413793103448276
L18384L
tp1248
sL16365L
(F1.953033734652521
L16386L
tp1249
sL36443L
(F1.6842105263157894
L36449L
tp1250
sL38863L
(F30.941713695547932
L38865L
tp1251
sL28624L
(F1.0
L28646L
tp1252
sL38865L
(F12.994472947183185
L38868L
tp1253
sL16338L
(F0.48825843366313026
L16352L
tp1254
sL30676L
(F5.333333333333333
L30688L
tp1255
sL18044L
(F64.0
L18055L
tp1256
sL28246L
(F1.391304347826087
L28249L
tp1257
sL36826L
(F64.0
L36834L
tp1258
sL18426L
(F282.48275862068965
L18436L
tp1259
sL24542L
(F360.1399060694308
L24563L
tp1260
sL30688L
(F10.666666666666666
L30692L
tp1261
sL35152L
(F1.0
L35154L
tp1262
sL38883L
(F18.302510630963212
L38904L
tp1263
sL30692L
(F5.333333333333333
L30696L
tp1264
sL29664L
(F2.0
L29664L
tp1265
sL28646L
(F2.0
L28666L
tp1266
sL36840L
(F7.529411764705882
L36845L
tp1267
sL19503L
(F282.48275862068965
L19514L
tp1268
sL18410L
(F70.62068965517241
L18416L
tp1269
sL14315L
(F4.295752490823283
L14328L
tp1270
sL24202L
(F0.06894449589316849
L24209L
tp1271
sL36845L
(F15.058823529411764
L36854L
tp1272
sL24190L
(F0.1258857454441093
L24202L
tp1273
sL35120L
(F1.0
L35122L
tp1274
sL23254L
(F1.217055415242906
L23264L
tp1275
sL13992L
(F2.782608695652174
L14008L
tp1276
sL34802L
(F2.782608695652174
L34807L
tp1277
sL18344L
(F1.103448275862069
L18363L
tp1278
sL28096L
(F2.6666666666666665
L28149L
tp1279
sL22504L
(F3.3684210526315788
L22510L
tp1280
sL36854L
(F3.764705882352941
L36870L
tp1281
sL38904L
(F36.605021261926424
L38934L
tp1282
sL27687L
(F1.391304347826087
L27712L
tp1283
sL22522L
(F26.94736842105263
L22532L
tp1284
sL26064L
(F2.371524320497837
L26085L
tp1285
s.